; Listing generated by Microsoft (R) Optimizing Compiler Version 19.28.29914.0 

include listing.inc

INCLUDELIB MSVCRT
INCLUDELIB OLDNAMES

PUBLIC	?writeBoolTrue@XMLUtil@tinyxml2@@0PEBDEB	; tinyxml2::XMLUtil::writeBoolTrue
PUBLIC	?writeBoolFalse@XMLUtil@tinyxml2@@0PEBDEB	; tinyxml2::XMLUtil::writeBoolFalse
PUBLIC	?_errorNames@XMLDocument@tinyxml2@@0PAPEBDA	; tinyxml2::XMLDocument::_errorNames
PUBLIC	??_C@_04KJFGKBNM@quot@				; `string'
PUBLIC	??_C@_03DCBBJBAA@amp@				; `string'
PUBLIC	??_C@_04LBCJFAKL@apos@				; `string'
PUBLIC	??_C@_02KCAKIFL@lt@				; `string'
PUBLIC	??_C@_02GHFEHLK@gt@				; `string'
PUBLIC	??_C@_04LOAJBDKD@true@				; `string'
PUBLIC	??_C@_05LAPONLG@false@				; `string'
PUBLIC	??_C@_0M@OFJBHGBM@XML_SUCCESS@			; `string'
PUBLIC	??_C@_0BB@IGIENDAL@XML_NO_ATTRIBUTE@		; `string'
PUBLIC	??_C@_0BJ@NLEFELMO@XML_WRONG_ATTRIBUTE_TYPE@	; `string'
PUBLIC	??_C@_0BJ@FAMPBCLJ@XML_ERROR_FILE_NOT_FOUND@	; `string'
PUBLIC	??_C@_0CD@IINDOEGO@XML_ERROR_FILE_COULD_NOT_BE_OPE@ ; `string'
PUBLIC	??_C@_0BK@LJEPDGMH@XML_ERROR_FILE_READ_ERROR@	; `string'
PUBLIC	??_C@_0BK@LPPPMOBG@XML_ERROR_PARSING_ELEMENT@	; `string'
PUBLIC	??_C@_0BM@LDAFAPCN@XML_ERROR_PARSING_ATTRIBUTE@	; `string'
PUBLIC	??_C@_0BH@GPBIBIKN@XML_ERROR_PARSING_TEXT@	; `string'
PUBLIC	??_C@_0BI@EPMILKIP@XML_ERROR_PARSING_CDATA@	; `string'
PUBLIC	??_C@_0BK@KECLFPGB@XML_ERROR_PARSING_COMMENT@	; `string'
PUBLIC	??_C@_0BO@JFKIELCK@XML_ERROR_PARSING_DECLARATION@ ; `string'
PUBLIC	??_C@_0BK@OFBGHHPE@XML_ERROR_PARSING_UNKNOWN@	; `string'
PUBLIC	??_C@_0BJ@CHGEEKHN@XML_ERROR_EMPTY_DOCUMENT@	; `string'
PUBLIC	??_C@_0BN@LCLEMLDC@XML_ERROR_MISMATCHED_ELEMENT@ ; `string'
PUBLIC	??_C@_0BC@IEJHGDCA@XML_ERROR_PARSING@		; `string'
PUBLIC	??_C@_0BJ@NENGEPDP@XML_CAN_NOT_CONVERT_TEXT@	; `string'
PUBLIC	??_C@_0BB@PLDKPHOM@XML_NO_TEXT_NODE@		; `string'
PUBLIC	??_C@_0BL@HMFAGBIO@XML_ELEMENT_DEPTH_EXCEEDED@	; `string'
;	COMDAT ??_C@_0BL@HMFAGBIO@XML_ELEMENT_DEPTH_EXCEEDED@
CONST	SEGMENT
??_C@_0BL@HMFAGBIO@XML_ELEMENT_DEPTH_EXCEEDED@ DB 'XML_ELEMENT_DEPTH_EXCE'
	DB	'EDED', 00H					; `string'
CONST	ENDS
;	COMDAT ??_C@_0BB@PLDKPHOM@XML_NO_TEXT_NODE@
CONST	SEGMENT
??_C@_0BB@PLDKPHOM@XML_NO_TEXT_NODE@ DB 'XML_NO_TEXT_NODE', 00H ; `string'
CONST	ENDS
;	COMDAT ??_C@_0BJ@NENGEPDP@XML_CAN_NOT_CONVERT_TEXT@
CONST	SEGMENT
??_C@_0BJ@NENGEPDP@XML_CAN_NOT_CONVERT_TEXT@ DB 'XML_CAN_NOT_CONVERT_TEXT'
	DB	00H						; `string'
CONST	ENDS
;	COMDAT ??_C@_0BC@IEJHGDCA@XML_ERROR_PARSING@
CONST	SEGMENT
??_C@_0BC@IEJHGDCA@XML_ERROR_PARSING@ DB 'XML_ERROR_PARSING', 00H ; `string'
CONST	ENDS
;	COMDAT ??_C@_0BN@LCLEMLDC@XML_ERROR_MISMATCHED_ELEMENT@
CONST	SEGMENT
??_C@_0BN@LCLEMLDC@XML_ERROR_MISMATCHED_ELEMENT@ DB 'XML_ERROR_MISMATCHED'
	DB	'_ELEMENT', 00H				; `string'
CONST	ENDS
;	COMDAT ??_C@_0BJ@CHGEEKHN@XML_ERROR_EMPTY_DOCUMENT@
CONST	SEGMENT
??_C@_0BJ@CHGEEKHN@XML_ERROR_EMPTY_DOCUMENT@ DB 'XML_ERROR_EMPTY_DOCUMENT'
	DB	00H						; `string'
CONST	ENDS
;	COMDAT ??_C@_0BK@OFBGHHPE@XML_ERROR_PARSING_UNKNOWN@
CONST	SEGMENT
??_C@_0BK@OFBGHHPE@XML_ERROR_PARSING_UNKNOWN@ DB 'XML_ERROR_PARSING_UNKNO'
	DB	'WN', 00H					; `string'
CONST	ENDS
;	COMDAT ??_C@_0BO@JFKIELCK@XML_ERROR_PARSING_DECLARATION@
CONST	SEGMENT
??_C@_0BO@JFKIELCK@XML_ERROR_PARSING_DECLARATION@ DB 'XML_ERROR_PARSING_D'
	DB	'ECLARATION', 00H				; `string'
CONST	ENDS
;	COMDAT ??_C@_0BK@KECLFPGB@XML_ERROR_PARSING_COMMENT@
CONST	SEGMENT
??_C@_0BK@KECLFPGB@XML_ERROR_PARSING_COMMENT@ DB 'XML_ERROR_PARSING_COMME'
	DB	'NT', 00H					; `string'
CONST	ENDS
;	COMDAT ??_C@_0BI@EPMILKIP@XML_ERROR_PARSING_CDATA@
CONST	SEGMENT
??_C@_0BI@EPMILKIP@XML_ERROR_PARSING_CDATA@ DB 'XML_ERROR_PARSING_CDATA', 00H ; `string'
CONST	ENDS
;	COMDAT ??_C@_0BH@GPBIBIKN@XML_ERROR_PARSING_TEXT@
CONST	SEGMENT
??_C@_0BH@GPBIBIKN@XML_ERROR_PARSING_TEXT@ DB 'XML_ERROR_PARSING_TEXT', 00H ; `string'
CONST	ENDS
;	COMDAT ??_C@_0BM@LDAFAPCN@XML_ERROR_PARSING_ATTRIBUTE@
CONST	SEGMENT
??_C@_0BM@LDAFAPCN@XML_ERROR_PARSING_ATTRIBUTE@ DB 'XML_ERROR_PARSING_ATT'
	DB	'RIBUTE', 00H				; `string'
CONST	ENDS
;	COMDAT ??_C@_0BK@LPPPMOBG@XML_ERROR_PARSING_ELEMENT@
CONST	SEGMENT
??_C@_0BK@LPPPMOBG@XML_ERROR_PARSING_ELEMENT@ DB 'XML_ERROR_PARSING_ELEME'
	DB	'NT', 00H					; `string'
CONST	ENDS
;	COMDAT ??_C@_0BK@LJEPDGMH@XML_ERROR_FILE_READ_ERROR@
CONST	SEGMENT
??_C@_0BK@LJEPDGMH@XML_ERROR_FILE_READ_ERROR@ DB 'XML_ERROR_FILE_READ_ERR'
	DB	'OR', 00H					; `string'
CONST	ENDS
;	COMDAT ??_C@_0CD@IINDOEGO@XML_ERROR_FILE_COULD_NOT_BE_OPE@
CONST	SEGMENT
??_C@_0CD@IINDOEGO@XML_ERROR_FILE_COULD_NOT_BE_OPE@ DB 'XML_ERROR_FILE_CO'
	DB	'ULD_NOT_BE_OPENED', 00H			; `string'
CONST	ENDS
;	COMDAT ??_C@_0BJ@FAMPBCLJ@XML_ERROR_FILE_NOT_FOUND@
CONST	SEGMENT
??_C@_0BJ@FAMPBCLJ@XML_ERROR_FILE_NOT_FOUND@ DB 'XML_ERROR_FILE_NOT_FOUND'
	DB	00H						; `string'
CONST	ENDS
;	COMDAT ??_C@_0BJ@NLEFELMO@XML_WRONG_ATTRIBUTE_TYPE@
CONST	SEGMENT
??_C@_0BJ@NLEFELMO@XML_WRONG_ATTRIBUTE_TYPE@ DB 'XML_WRONG_ATTRIBUTE_TYPE'
	DB	00H						; `string'
CONST	ENDS
;	COMDAT ??_C@_0BB@IGIENDAL@XML_NO_ATTRIBUTE@
CONST	SEGMENT
??_C@_0BB@IGIENDAL@XML_NO_ATTRIBUTE@ DB 'XML_NO_ATTRIBUTE', 00H ; `string'
CONST	ENDS
;	COMDAT ??_C@_0M@OFJBHGBM@XML_SUCCESS@
CONST	SEGMENT
??_C@_0M@OFJBHGBM@XML_SUCCESS@ DB 'XML_SUCCESS', 00H	; `string'
CONST	ENDS
;	COMDAT ??_C@_05LAPONLG@false@
CONST	SEGMENT
??_C@_05LAPONLG@false@ DB 'false', 00H			; `string'
CONST	ENDS
;	COMDAT ??_C@_04LOAJBDKD@true@
CONST	SEGMENT
??_C@_04LOAJBDKD@true@ DB 'true', 00H			; `string'
CONST	ENDS
;	COMDAT ??_C@_02GHFEHLK@gt@
CONST	SEGMENT
??_C@_02GHFEHLK@gt@ DB 'gt', 00H			; `string'
CONST	ENDS
;	COMDAT ??_C@_02KCAKIFL@lt@
CONST	SEGMENT
??_C@_02KCAKIFL@lt@ DB 'lt', 00H			; `string'
CONST	ENDS
;	COMDAT ??_C@_04LBCJFAKL@apos@
CONST	SEGMENT
??_C@_04LBCJFAKL@apos@ DB 'apos', 00H			; `string'
CONST	ENDS
;	COMDAT ??_C@_03DCBBJBAA@amp@
CONST	SEGMENT
??_C@_03DCBBJBAA@amp@ DB 'amp', 00H			; `string'
CONST	ENDS
;	COMDAT ??_C@_04KJFGKBNM@quot@
CONST	SEGMENT
??_C@_04KJFGKBNM@quot@ DB 'quot', 00H			; `string'
CONST	ENDS
CONST	SEGMENT
?entities@tinyxml2@@3QBUEntity@1@B DQ FLAT:??_C@_04KJFGKBNM@quot@ ; tinyxml2::entities
	DD	04H
	DB	022H
	ORG $+3
	DQ	FLAT:??_C@_03DCBBJBAA@amp@
	DD	03H
	DB	026H
	ORG $+3
	DQ	FLAT:??_C@_04LBCJFAKL@apos@
	DD	04H
	DB	027H
	ORG $+3
	DQ	FLAT:??_C@_02KCAKIFL@lt@
	DD	02H
	DB	03cH
	ORG $+3
	DQ	FLAT:??_C@_02GHFEHLK@gt@
	DD	02H
	DB	03eH
	ORG $+3
CONST	ENDS
_DATA	SEGMENT
?writeBoolTrue@XMLUtil@tinyxml2@@0PEBDEB DQ FLAT:??_C@_04LOAJBDKD@true@ ; tinyxml2::XMLUtil::writeBoolTrue
?writeBoolFalse@XMLUtil@tinyxml2@@0PEBDEB DQ FLAT:??_C@_05LAPONLG@false@ ; tinyxml2::XMLUtil::writeBoolFalse
?_errorNames@XMLDocument@tinyxml2@@0PAPEBDA DQ FLAT:??_C@_0M@OFJBHGBM@XML_SUCCESS@ ; tinyxml2::XMLDocument::_errorNames
	DQ	FLAT:??_C@_0BB@IGIENDAL@XML_NO_ATTRIBUTE@
	DQ	FLAT:??_C@_0BJ@NLEFELMO@XML_WRONG_ATTRIBUTE_TYPE@
	DQ	FLAT:??_C@_0BJ@FAMPBCLJ@XML_ERROR_FILE_NOT_FOUND@
	DQ	FLAT:??_C@_0CD@IINDOEGO@XML_ERROR_FILE_COULD_NOT_BE_OPE@
	DQ	FLAT:??_C@_0BK@LJEPDGMH@XML_ERROR_FILE_READ_ERROR@
	DQ	FLAT:??_C@_0BK@LPPPMOBG@XML_ERROR_PARSING_ELEMENT@
	DQ	FLAT:??_C@_0BM@LDAFAPCN@XML_ERROR_PARSING_ATTRIBUTE@
	DQ	FLAT:??_C@_0BH@GPBIBIKN@XML_ERROR_PARSING_TEXT@
	DQ	FLAT:??_C@_0BI@EPMILKIP@XML_ERROR_PARSING_CDATA@
	DQ	FLAT:??_C@_0BK@KECLFPGB@XML_ERROR_PARSING_COMMENT@
	DQ	FLAT:??_C@_0BO@JFKIELCK@XML_ERROR_PARSING_DECLARATION@
	DQ	FLAT:??_C@_0BK@OFBGHHPE@XML_ERROR_PARSING_UNKNOWN@
	DQ	FLAT:??_C@_0BJ@CHGEEKHN@XML_ERROR_EMPTY_DOCUMENT@
	DQ	FLAT:??_C@_0BN@LCLEMLDC@XML_ERROR_MISMATCHED_ELEMENT@
	DQ	FLAT:??_C@_0BC@IEJHGDCA@XML_ERROR_PARSING@
	DQ	FLAT:??_C@_0BJ@NENGEPDP@XML_CAN_NOT_CONVERT_TEXT@
	DQ	FLAT:??_C@_0BB@PLDKPHOM@XML_NO_TEXT_NODE@
	DQ	FLAT:??_C@_0BL@HMFAGBIO@XML_ELEMENT_DEPTH_EXCEEDED@
_DATA	ENDS
PUBLIC	__local_stdio_printf_options
PUBLIC	__local_stdio_scanf_options
PUBLIC	_vfprintf_l
PUBLIC	vfprintf
PUBLIC	printf
PUBLIC	_vsnprintf_s_l
PUBLIC	vsnprintf_s
PUBLIC	_vscprintf_l
PUBLIC	_vscprintf
PUBLIC	_vsscanf_s_l
PUBLIC	vsscanf_s
PUBLIC	sscanf_s
PUBLIC	??0StrPair@tinyxml2@@QEAA@XZ			; tinyxml2::StrPair::StrPair
PUBLIC	??1StrPair@tinyxml2@@QEAA@XZ			; tinyxml2::StrPair::~StrPair
PUBLIC	?Set@StrPair@tinyxml2@@QEAAXPEAD0H@Z		; tinyxml2::StrPair::Set
PUBLIC	?GetStr@StrPair@tinyxml2@@QEAAPEBDXZ		; tinyxml2::StrPair::GetStr
PUBLIC	?Empty@StrPair@tinyxml2@@QEBA_NXZ		; tinyxml2::StrPair::Empty
PUBLIC	?SetInternedStr@StrPair@tinyxml2@@QEAAXPEBD@Z	; tinyxml2::StrPair::SetInternedStr
PUBLIC	?SetStr@StrPair@tinyxml2@@QEAAXPEBDH@Z		; tinyxml2::StrPair::SetStr
PUBLIC	?ParseText@StrPair@tinyxml2@@QEAAPEADPEADPEBDHPEAH@Z ; tinyxml2::StrPair::ParseText
PUBLIC	?ParseName@StrPair@tinyxml2@@QEAAPEADPEAD@Z	; tinyxml2::StrPair::ParseName
PUBLIC	?TransferTo@StrPair@tinyxml2@@QEAAXPEAV12@@Z	; tinyxml2::StrPair::TransferTo
PUBLIC	?Reset@StrPair@tinyxml2@@QEAAXXZ		; tinyxml2::StrPair::Reset
PUBLIC	?CollapseWhitespace@StrPair@tinyxml2@@AEAAXXZ	; tinyxml2::StrPair::CollapseWhitespace
PUBLIC	??0MemPool@tinyxml2@@QEAA@XZ			; tinyxml2::MemPool::MemPool
PUBLIC	??1MemPool@tinyxml2@@UEAA@XZ			; tinyxml2::MemPool::~MemPool
PUBLIC	??_GMemPool@tinyxml2@@UEAAPEAXI@Z		; tinyxml2::MemPool::`scalar deleting destructor'
PUBLIC	??1XMLVisitor@tinyxml2@@UEAA@XZ			; tinyxml2::XMLVisitor::~XMLVisitor
PUBLIC	?VisitEnter@XMLVisitor@tinyxml2@@UEAA_NAEBVXMLDocument@2@@Z ; tinyxml2::XMLVisitor::VisitEnter
PUBLIC	?VisitExit@XMLVisitor@tinyxml2@@UEAA_NAEBVXMLDocument@2@@Z ; tinyxml2::XMLVisitor::VisitExit
PUBLIC	?VisitEnter@XMLVisitor@tinyxml2@@UEAA_NAEBVXMLElement@2@PEBVXMLAttribute@2@@Z ; tinyxml2::XMLVisitor::VisitEnter
PUBLIC	?VisitExit@XMLVisitor@tinyxml2@@UEAA_NAEBVXMLElement@2@@Z ; tinyxml2::XMLVisitor::VisitExit
PUBLIC	?Visit@XMLVisitor@tinyxml2@@UEAA_NAEBVXMLDeclaration@2@@Z ; tinyxml2::XMLVisitor::Visit
PUBLIC	?Visit@XMLVisitor@tinyxml2@@UEAA_NAEBVXMLText@2@@Z ; tinyxml2::XMLVisitor::Visit
PUBLIC	?Visit@XMLVisitor@tinyxml2@@UEAA_NAEBVXMLComment@2@@Z ; tinyxml2::XMLVisitor::Visit
PUBLIC	?Visit@XMLVisitor@tinyxml2@@UEAA_NAEBVXMLUnknown@2@@Z ; tinyxml2::XMLVisitor::Visit
PUBLIC	??0XMLVisitor@tinyxml2@@QEAA@XZ			; tinyxml2::XMLVisitor::XMLVisitor
PUBLIC	??_GXMLVisitor@tinyxml2@@UEAAPEAXI@Z		; tinyxml2::XMLVisitor::`scalar deleting destructor'
PUBLIC	?SkipWhiteSpace@XMLUtil@tinyxml2@@SAPEBDPEBDPEAH@Z ; tinyxml2::XMLUtil::SkipWhiteSpace
PUBLIC	?SkipWhiteSpace@XMLUtil@tinyxml2@@SAPEADQEADPEAH@Z ; tinyxml2::XMLUtil::SkipWhiteSpace
PUBLIC	?IsWhiteSpace@XMLUtil@tinyxml2@@SA_ND@Z		; tinyxml2::XMLUtil::IsWhiteSpace
PUBLIC	?IsNameStartChar@XMLUtil@tinyxml2@@SA_NE@Z	; tinyxml2::XMLUtil::IsNameStartChar
PUBLIC	?IsNameChar@XMLUtil@tinyxml2@@SA_NE@Z		; tinyxml2::XMLUtil::IsNameChar
PUBLIC	?IsPrefixHex@XMLUtil@tinyxml2@@SA_NPEBD@Z	; tinyxml2::XMLUtil::IsPrefixHex
PUBLIC	?StringEqual@XMLUtil@tinyxml2@@SA_NPEBD0H@Z	; tinyxml2::XMLUtil::StringEqual
PUBLIC	?IsUTF8Continuation@XMLUtil@tinyxml2@@SA_ND@Z	; tinyxml2::XMLUtil::IsUTF8Continuation
PUBLIC	?ReadBOM@XMLUtil@tinyxml2@@SAPEBDPEBDPEA_N@Z	; tinyxml2::XMLUtil::ReadBOM
PUBLIC	?GetCharacterRef@XMLUtil@tinyxml2@@SAPEBDPEBDPEADPEAH@Z ; tinyxml2::XMLUtil::GetCharacterRef
PUBLIC	?ConvertUTF32ToUTF8@XMLUtil@tinyxml2@@SAXKPEADPEAH@Z ; tinyxml2::XMLUtil::ConvertUTF32ToUTF8
PUBLIC	?ToStr@XMLUtil@tinyxml2@@SAXHPEADH@Z		; tinyxml2::XMLUtil::ToStr
PUBLIC	?ToStr@XMLUtil@tinyxml2@@SAXIPEADH@Z		; tinyxml2::XMLUtil::ToStr
PUBLIC	?ToStr@XMLUtil@tinyxml2@@SAX_NPEADH@Z		; tinyxml2::XMLUtil::ToStr
PUBLIC	?ToStr@XMLUtil@tinyxml2@@SAXMPEADH@Z		; tinyxml2::XMLUtil::ToStr
PUBLIC	?ToStr@XMLUtil@tinyxml2@@SAXNPEADH@Z		; tinyxml2::XMLUtil::ToStr
PUBLIC	?ToStr@XMLUtil@tinyxml2@@SAX_JPEADH@Z		; tinyxml2::XMLUtil::ToStr
PUBLIC	?ToStr@XMLUtil@tinyxml2@@SAX_KPEADH@Z		; tinyxml2::XMLUtil::ToStr
PUBLIC	?ToInt@XMLUtil@tinyxml2@@SA_NPEBDPEAH@Z		; tinyxml2::XMLUtil::ToInt
PUBLIC	?ToUnsigned@XMLUtil@tinyxml2@@SA_NPEBDPEAI@Z	; tinyxml2::XMLUtil::ToUnsigned
PUBLIC	?ToBool@XMLUtil@tinyxml2@@SA_NPEBDPEA_N@Z	; tinyxml2::XMLUtil::ToBool
PUBLIC	?ToFloat@XMLUtil@tinyxml2@@SA_NPEBDPEAM@Z	; tinyxml2::XMLUtil::ToFloat
PUBLIC	?ToDouble@XMLUtil@tinyxml2@@SA_NPEBDPEAN@Z	; tinyxml2::XMLUtil::ToDouble
PUBLIC	?ToInt64@XMLUtil@tinyxml2@@SA_NPEBDPEA_J@Z	; tinyxml2::XMLUtil::ToInt64
PUBLIC	?ToUnsigned64@XMLUtil@tinyxml2@@SA_NPEBDPEA_K@Z	; tinyxml2::XMLUtil::ToUnsigned64
PUBLIC	?SetBoolSerialization@XMLUtil@tinyxml2@@SAXPEBD0@Z ; tinyxml2::XMLUtil::SetBoolSerialization
PUBLIC	?GetDocument@XMLNode@tinyxml2@@QEAAPEAVXMLDocument@2@XZ ; tinyxml2::XMLNode::GetDocument
PUBLIC	?ToElement@XMLNode@tinyxml2@@UEAAPEAVXMLElement@2@XZ ; tinyxml2::XMLNode::ToElement
PUBLIC	?ToText@XMLNode@tinyxml2@@UEAAPEAVXMLText@2@XZ	; tinyxml2::XMLNode::ToText
PUBLIC	?ToComment@XMLNode@tinyxml2@@UEAAPEAVXMLComment@2@XZ ; tinyxml2::XMLNode::ToComment
PUBLIC	?ToDocument@XMLNode@tinyxml2@@UEAAPEAVXMLDocument@2@XZ ; tinyxml2::XMLNode::ToDocument
PUBLIC	?ToDeclaration@XMLNode@tinyxml2@@UEAAPEAVXMLDeclaration@2@XZ ; tinyxml2::XMLNode::ToDeclaration
PUBLIC	?ToUnknown@XMLNode@tinyxml2@@UEAAPEAVXMLUnknown@2@XZ ; tinyxml2::XMLNode::ToUnknown
PUBLIC	?ToElement@XMLNode@tinyxml2@@UEBAPEBVXMLElement@2@XZ ; tinyxml2::XMLNode::ToElement
PUBLIC	?ToText@XMLNode@tinyxml2@@UEBAPEBVXMLText@2@XZ	; tinyxml2::XMLNode::ToText
PUBLIC	?ToComment@XMLNode@tinyxml2@@UEBAPEBVXMLComment@2@XZ ; tinyxml2::XMLNode::ToComment
PUBLIC	?ToDocument@XMLNode@tinyxml2@@UEBAPEBVXMLDocument@2@XZ ; tinyxml2::XMLNode::ToDocument
PUBLIC	?ToDeclaration@XMLNode@tinyxml2@@UEBAPEBVXMLDeclaration@2@XZ ; tinyxml2::XMLNode::ToDeclaration
PUBLIC	?ToUnknown@XMLNode@tinyxml2@@UEBAPEBVXMLUnknown@2@XZ ; tinyxml2::XMLNode::ToUnknown
PUBLIC	?Value@XMLNode@tinyxml2@@QEBAPEBDXZ		; tinyxml2::XMLNode::Value
PUBLIC	?SetValue@XMLNode@tinyxml2@@QEAAXPEBD_N@Z	; tinyxml2::XMLNode::SetValue
PUBLIC	?Parent@XMLNode@tinyxml2@@QEBAPEBV12@XZ		; tinyxml2::XMLNode::Parent
PUBLIC	?FirstChild@XMLNode@tinyxml2@@QEBAPEBV12@XZ	; tinyxml2::XMLNode::FirstChild
PUBLIC	?FirstChild@XMLNode@tinyxml2@@QEAAPEAV12@XZ	; tinyxml2::XMLNode::FirstChild
PUBLIC	?FirstChildElement@XMLNode@tinyxml2@@QEBAPEBVXMLElement@2@PEBD@Z ; tinyxml2::XMLNode::FirstChildElement
PUBLIC	?LastChild@XMLNode@tinyxml2@@QEAAPEAV12@XZ	; tinyxml2::XMLNode::LastChild
PUBLIC	?LastChildElement@XMLNode@tinyxml2@@QEBAPEBVXMLElement@2@PEBD@Z ; tinyxml2::XMLNode::LastChildElement
PUBLIC	?PreviousSiblingElement@XMLNode@tinyxml2@@QEBAPEBVXMLElement@2@PEBD@Z ; tinyxml2::XMLNode::PreviousSiblingElement
PUBLIC	?NextSibling@XMLNode@tinyxml2@@QEBAPEBV12@XZ	; tinyxml2::XMLNode::NextSibling
PUBLIC	?NextSiblingElement@XMLNode@tinyxml2@@QEBAPEBVXMLElement@2@PEBD@Z ; tinyxml2::XMLNode::NextSiblingElement
PUBLIC	?InsertEndChild@XMLNode@tinyxml2@@QEAAPEAV12@PEAV12@@Z ; tinyxml2::XMLNode::InsertEndChild
PUBLIC	?InsertFirstChild@XMLNode@tinyxml2@@QEAAPEAV12@PEAV12@@Z ; tinyxml2::XMLNode::InsertFirstChild
PUBLIC	?InsertAfterChild@XMLNode@tinyxml2@@QEAAPEAV12@PEAV12@0@Z ; tinyxml2::XMLNode::InsertAfterChild
PUBLIC	?DeleteChildren@XMLNode@tinyxml2@@QEAAXXZ	; tinyxml2::XMLNode::DeleteChildren
PUBLIC	?DeleteChild@XMLNode@tinyxml2@@QEAAXPEAV12@@Z	; tinyxml2::XMLNode::DeleteChild
PUBLIC	?DeepClone@XMLNode@tinyxml2@@QEBAPEAV12@PEAVXMLDocument@2@@Z ; tinyxml2::XMLNode::DeepClone
PUBLIC	??0XMLNode@tinyxml2@@IEAA@PEAVXMLDocument@1@@Z	; tinyxml2::XMLNode::XMLNode
PUBLIC	??1XMLNode@tinyxml2@@MEAA@XZ			; tinyxml2::XMLNode::~XMLNode
PUBLIC	?ParseDeep@XMLNode@tinyxml2@@MEAAPEADPEADPEAVStrPair@2@PEAH@Z ; tinyxml2::XMLNode::ParseDeep
PUBLIC	?Unlink@XMLNode@tinyxml2@@AEAAXPEAV12@@Z	; tinyxml2::XMLNode::Unlink
PUBLIC	?DeleteNode@XMLNode@tinyxml2@@CAXPEAV12@@Z	; tinyxml2::XMLNode::DeleteNode
PUBLIC	?InsertChildPreamble@XMLNode@tinyxml2@@AEBAXPEAV12@@Z ; tinyxml2::XMLNode::InsertChildPreamble
PUBLIC	?ToElementWithName@XMLNode@tinyxml2@@AEBAPEBVXMLElement@2@PEBD@Z ; tinyxml2::XMLNode::ToElementWithName
PUBLIC	??_GXMLNode@tinyxml2@@MEAAPEAXI@Z		; tinyxml2::XMLNode::`scalar deleting destructor'
PUBLIC	?Accept@XMLText@tinyxml2@@UEBA_NPEAVXMLVisitor@2@@Z ; tinyxml2::XMLText::Accept
PUBLIC	?ToText@XMLText@tinyxml2@@UEAAPEAV12@XZ		; tinyxml2::XMLText::ToText
PUBLIC	?ToText@XMLText@tinyxml2@@UEBAPEBV12@XZ		; tinyxml2::XMLText::ToText
PUBLIC	?SetCData@XMLText@tinyxml2@@QEAAX_N@Z		; tinyxml2::XMLText::SetCData
PUBLIC	?CData@XMLText@tinyxml2@@QEBA_NXZ		; tinyxml2::XMLText::CData
PUBLIC	?ShallowClone@XMLText@tinyxml2@@UEBAPEAVXMLNode@2@PEAVXMLDocument@2@@Z ; tinyxml2::XMLText::ShallowClone
PUBLIC	?ShallowEqual@XMLText@tinyxml2@@UEBA_NPEBVXMLNode@2@@Z ; tinyxml2::XMLText::ShallowEqual
PUBLIC	??0XMLText@tinyxml2@@IEAA@PEAVXMLDocument@1@@Z	; tinyxml2::XMLText::XMLText
PUBLIC	??1XMLText@tinyxml2@@MEAA@XZ			; tinyxml2::XMLText::~XMLText
PUBLIC	?ParseDeep@XMLText@tinyxml2@@MEAAPEADPEADPEAVStrPair@2@PEAH@Z ; tinyxml2::XMLText::ParseDeep
PUBLIC	??_GXMLText@tinyxml2@@MEAAPEAXI@Z		; tinyxml2::XMLText::`scalar deleting destructor'
PUBLIC	?ToComment@XMLComment@tinyxml2@@UEAAPEAV12@XZ	; tinyxml2::XMLComment::ToComment
PUBLIC	?ToComment@XMLComment@tinyxml2@@UEBAPEBV12@XZ	; tinyxml2::XMLComment::ToComment
PUBLIC	?Accept@XMLComment@tinyxml2@@UEBA_NPEAVXMLVisitor@2@@Z ; tinyxml2::XMLComment::Accept
PUBLIC	?ShallowClone@XMLComment@tinyxml2@@UEBAPEAVXMLNode@2@PEAVXMLDocument@2@@Z ; tinyxml2::XMLComment::ShallowClone
PUBLIC	?ShallowEqual@XMLComment@tinyxml2@@UEBA_NPEBVXMLNode@2@@Z ; tinyxml2::XMLComment::ShallowEqual
PUBLIC	??0XMLComment@tinyxml2@@IEAA@PEAVXMLDocument@1@@Z ; tinyxml2::XMLComment::XMLComment
PUBLIC	??1XMLComment@tinyxml2@@MEAA@XZ			; tinyxml2::XMLComment::~XMLComment
PUBLIC	?ParseDeep@XMLComment@tinyxml2@@MEAAPEADPEADPEAVStrPair@2@PEAH@Z ; tinyxml2::XMLComment::ParseDeep
PUBLIC	??_GXMLComment@tinyxml2@@MEAAPEAXI@Z		; tinyxml2::XMLComment::`scalar deleting destructor'
PUBLIC	?ToDeclaration@XMLDeclaration@tinyxml2@@UEAAPEAV12@XZ ; tinyxml2::XMLDeclaration::ToDeclaration
PUBLIC	?ToDeclaration@XMLDeclaration@tinyxml2@@UEBAPEBV12@XZ ; tinyxml2::XMLDeclaration::ToDeclaration
PUBLIC	?Accept@XMLDeclaration@tinyxml2@@UEBA_NPEAVXMLVisitor@2@@Z ; tinyxml2::XMLDeclaration::Accept
PUBLIC	?ShallowClone@XMLDeclaration@tinyxml2@@UEBAPEAVXMLNode@2@PEAVXMLDocument@2@@Z ; tinyxml2::XMLDeclaration::ShallowClone
PUBLIC	?ShallowEqual@XMLDeclaration@tinyxml2@@UEBA_NPEBVXMLNode@2@@Z ; tinyxml2::XMLDeclaration::ShallowEqual
PUBLIC	??0XMLDeclaration@tinyxml2@@IEAA@PEAVXMLDocument@1@@Z ; tinyxml2::XMLDeclaration::XMLDeclaration
PUBLIC	??1XMLDeclaration@tinyxml2@@MEAA@XZ		; tinyxml2::XMLDeclaration::~XMLDeclaration
PUBLIC	?ParseDeep@XMLDeclaration@tinyxml2@@MEAAPEADPEADPEAVStrPair@2@PEAH@Z ; tinyxml2::XMLDeclaration::ParseDeep
PUBLIC	??_GXMLDeclaration@tinyxml2@@MEAAPEAXI@Z	; tinyxml2::XMLDeclaration::`scalar deleting destructor'
PUBLIC	?ToUnknown@XMLUnknown@tinyxml2@@UEAAPEAV12@XZ	; tinyxml2::XMLUnknown::ToUnknown
PUBLIC	?ToUnknown@XMLUnknown@tinyxml2@@UEBAPEBV12@XZ	; tinyxml2::XMLUnknown::ToUnknown
PUBLIC	?Accept@XMLUnknown@tinyxml2@@UEBA_NPEAVXMLVisitor@2@@Z ; tinyxml2::XMLUnknown::Accept
PUBLIC	?ShallowClone@XMLUnknown@tinyxml2@@UEBAPEAVXMLNode@2@PEAVXMLDocument@2@@Z ; tinyxml2::XMLUnknown::ShallowClone
PUBLIC	?ShallowEqual@XMLUnknown@tinyxml2@@UEBA_NPEBVXMLNode@2@@Z ; tinyxml2::XMLUnknown::ShallowEqual
PUBLIC	??0XMLUnknown@tinyxml2@@IEAA@PEAVXMLDocument@1@@Z ; tinyxml2::XMLUnknown::XMLUnknown
PUBLIC	??1XMLUnknown@tinyxml2@@MEAA@XZ			; tinyxml2::XMLUnknown::~XMLUnknown
PUBLIC	?ParseDeep@XMLUnknown@tinyxml2@@MEAAPEADPEADPEAVStrPair@2@PEAH@Z ; tinyxml2::XMLUnknown::ParseDeep
PUBLIC	??_GXMLUnknown@tinyxml2@@MEAAPEAXI@Z		; tinyxml2::XMLUnknown::`scalar deleting destructor'
PUBLIC	?Name@XMLAttribute@tinyxml2@@QEBAPEBDXZ		; tinyxml2::XMLAttribute::Name
PUBLIC	?Value@XMLAttribute@tinyxml2@@QEBAPEBDXZ	; tinyxml2::XMLAttribute::Value
PUBLIC	?Next@XMLAttribute@tinyxml2@@QEBAPEBV12@XZ	; tinyxml2::XMLAttribute::Next
PUBLIC	?QueryIntValue@XMLAttribute@tinyxml2@@QEBA?AW4XMLError@2@PEAH@Z ; tinyxml2::XMLAttribute::QueryIntValue
PUBLIC	?QueryUnsignedValue@XMLAttribute@tinyxml2@@QEBA?AW4XMLError@2@PEAI@Z ; tinyxml2::XMLAttribute::QueryUnsignedValue
PUBLIC	?QueryInt64Value@XMLAttribute@tinyxml2@@QEBA?AW4XMLError@2@PEA_J@Z ; tinyxml2::XMLAttribute::QueryInt64Value
PUBLIC	?QueryUnsigned64Value@XMLAttribute@tinyxml2@@QEBA?AW4XMLError@2@PEA_K@Z ; tinyxml2::XMLAttribute::QueryUnsigned64Value
PUBLIC	?QueryBoolValue@XMLAttribute@tinyxml2@@QEBA?AW4XMLError@2@PEA_N@Z ; tinyxml2::XMLAttribute::QueryBoolValue
PUBLIC	?QueryDoubleValue@XMLAttribute@tinyxml2@@QEBA?AW4XMLError@2@PEAN@Z ; tinyxml2::XMLAttribute::QueryDoubleValue
PUBLIC	?QueryFloatValue@XMLAttribute@tinyxml2@@QEBA?AW4XMLError@2@PEAM@Z ; tinyxml2::XMLAttribute::QueryFloatValue
PUBLIC	?SetAttribute@XMLAttribute@tinyxml2@@QEAAXPEBD@Z ; tinyxml2::XMLAttribute::SetAttribute
PUBLIC	?SetAttribute@XMLAttribute@tinyxml2@@QEAAXH@Z	; tinyxml2::XMLAttribute::SetAttribute
PUBLIC	?SetAttribute@XMLAttribute@tinyxml2@@QEAAXI@Z	; tinyxml2::XMLAttribute::SetAttribute
PUBLIC	?SetAttribute@XMLAttribute@tinyxml2@@QEAAX_J@Z	; tinyxml2::XMLAttribute::SetAttribute
PUBLIC	?SetAttribute@XMLAttribute@tinyxml2@@QEAAX_K@Z	; tinyxml2::XMLAttribute::SetAttribute
PUBLIC	?SetAttribute@XMLAttribute@tinyxml2@@QEAAX_N@Z	; tinyxml2::XMLAttribute::SetAttribute
PUBLIC	?SetAttribute@XMLAttribute@tinyxml2@@QEAAXN@Z	; tinyxml2::XMLAttribute::SetAttribute
PUBLIC	?SetAttribute@XMLAttribute@tinyxml2@@QEAAXM@Z	; tinyxml2::XMLAttribute::SetAttribute
PUBLIC	??0XMLAttribute@tinyxml2@@AEAA@XZ		; tinyxml2::XMLAttribute::XMLAttribute
PUBLIC	??1XMLAttribute@tinyxml2@@EEAA@XZ		; tinyxml2::XMLAttribute::~XMLAttribute
PUBLIC	?SetName@XMLAttribute@tinyxml2@@AEAAXPEBD@Z	; tinyxml2::XMLAttribute::SetName
PUBLIC	?ParseDeep@XMLAttribute@tinyxml2@@AEAAPEADPEAD_NPEAH@Z ; tinyxml2::XMLAttribute::ParseDeep
PUBLIC	??_GXMLAttribute@tinyxml2@@EEAAPEAXI@Z		; tinyxml2::XMLAttribute::`scalar deleting destructor'
PUBLIC	?Name@XMLElement@tinyxml2@@QEBAPEBDXZ		; tinyxml2::XMLElement::Name
PUBLIC	?SetName@XMLElement@tinyxml2@@QEAAXPEBD_N@Z	; tinyxml2::XMLElement::SetName
PUBLIC	?ToElement@XMLElement@tinyxml2@@UEAAPEAV12@XZ	; tinyxml2::XMLElement::ToElement
PUBLIC	?ToElement@XMLElement@tinyxml2@@UEBAPEBV12@XZ	; tinyxml2::XMLElement::ToElement
PUBLIC	?Accept@XMLElement@tinyxml2@@UEBA_NPEAVXMLVisitor@2@@Z ; tinyxml2::XMLElement::Accept
PUBLIC	?Attribute@XMLElement@tinyxml2@@QEBAPEBDPEBD0@Z	; tinyxml2::XMLElement::Attribute
PUBLIC	?IntAttribute@XMLElement@tinyxml2@@QEBAHPEBDH@Z	; tinyxml2::XMLElement::IntAttribute
PUBLIC	?UnsignedAttribute@XMLElement@tinyxml2@@QEBAIPEBDI@Z ; tinyxml2::XMLElement::UnsignedAttribute
PUBLIC	?Int64Attribute@XMLElement@tinyxml2@@QEBA_JPEBD_J@Z ; tinyxml2::XMLElement::Int64Attribute
PUBLIC	?Unsigned64Attribute@XMLElement@tinyxml2@@QEBA_KPEBD_K@Z ; tinyxml2::XMLElement::Unsigned64Attribute
PUBLIC	?BoolAttribute@XMLElement@tinyxml2@@QEBA_NPEBD_N@Z ; tinyxml2::XMLElement::BoolAttribute
PUBLIC	?DoubleAttribute@XMLElement@tinyxml2@@QEBANPEBDN@Z ; tinyxml2::XMLElement::DoubleAttribute
PUBLIC	?FloatAttribute@XMLElement@tinyxml2@@QEBAMPEBDM@Z ; tinyxml2::XMLElement::FloatAttribute
PUBLIC	?QueryIntAttribute@XMLElement@tinyxml2@@QEBA?AW4XMLError@2@PEBDPEAH@Z ; tinyxml2::XMLElement::QueryIntAttribute
PUBLIC	?QueryUnsignedAttribute@XMLElement@tinyxml2@@QEBA?AW4XMLError@2@PEBDPEAI@Z ; tinyxml2::XMLElement::QueryUnsignedAttribute
PUBLIC	?QueryInt64Attribute@XMLElement@tinyxml2@@QEBA?AW4XMLError@2@PEBDPEA_J@Z ; tinyxml2::XMLElement::QueryInt64Attribute
PUBLIC	?QueryUnsigned64Attribute@XMLElement@tinyxml2@@QEBA?AW4XMLError@2@PEBDPEA_K@Z ; tinyxml2::XMLElement::QueryUnsigned64Attribute
PUBLIC	?QueryBoolAttribute@XMLElement@tinyxml2@@QEBA?AW4XMLError@2@PEBDPEA_N@Z ; tinyxml2::XMLElement::QueryBoolAttribute
PUBLIC	?QueryDoubleAttribute@XMLElement@tinyxml2@@QEBA?AW4XMLError@2@PEBDPEAN@Z ; tinyxml2::XMLElement::QueryDoubleAttribute
PUBLIC	?QueryFloatAttribute@XMLElement@tinyxml2@@QEBA?AW4XMLError@2@PEBDPEAM@Z ; tinyxml2::XMLElement::QueryFloatAttribute
PUBLIC	?SetAttribute@XMLElement@tinyxml2@@QEAAXPEBD0@Z	; tinyxml2::XMLElement::SetAttribute
PUBLIC	?DeleteAttribute@XMLElement@tinyxml2@@QEAAXPEBD@Z ; tinyxml2::XMLElement::DeleteAttribute
PUBLIC	?FirstAttribute@XMLElement@tinyxml2@@QEBAPEBVXMLAttribute@2@XZ ; tinyxml2::XMLElement::FirstAttribute
PUBLIC	?FindAttribute@XMLElement@tinyxml2@@QEBAPEBVXMLAttribute@2@PEBD@Z ; tinyxml2::XMLElement::FindAttribute
PUBLIC	?GetText@XMLElement@tinyxml2@@QEBAPEBDXZ	; tinyxml2::XMLElement::GetText
PUBLIC	?SetText@XMLElement@tinyxml2@@QEAAXPEBD@Z	; tinyxml2::XMLElement::SetText
PUBLIC	?SetText@XMLElement@tinyxml2@@QEAAXH@Z		; tinyxml2::XMLElement::SetText
PUBLIC	?SetText@XMLElement@tinyxml2@@QEAAXI@Z		; tinyxml2::XMLElement::SetText
PUBLIC	?SetText@XMLElement@tinyxml2@@QEAAX_J@Z		; tinyxml2::XMLElement::SetText
PUBLIC	?SetText@XMLElement@tinyxml2@@QEAAX_K@Z		; tinyxml2::XMLElement::SetText
PUBLIC	?SetText@XMLElement@tinyxml2@@QEAAX_N@Z		; tinyxml2::XMLElement::SetText
PUBLIC	?SetText@XMLElement@tinyxml2@@QEAAXN@Z		; tinyxml2::XMLElement::SetText
PUBLIC	?SetText@XMLElement@tinyxml2@@QEAAXM@Z		; tinyxml2::XMLElement::SetText
PUBLIC	?QueryIntText@XMLElement@tinyxml2@@QEBA?AW4XMLError@2@PEAH@Z ; tinyxml2::XMLElement::QueryIntText
PUBLIC	?QueryUnsignedText@XMLElement@tinyxml2@@QEBA?AW4XMLError@2@PEAI@Z ; tinyxml2::XMLElement::QueryUnsignedText
PUBLIC	?QueryInt64Text@XMLElement@tinyxml2@@QEBA?AW4XMLError@2@PEA_J@Z ; tinyxml2::XMLElement::QueryInt64Text
PUBLIC	?QueryUnsigned64Text@XMLElement@tinyxml2@@QEBA?AW4XMLError@2@PEA_K@Z ; tinyxml2::XMLElement::QueryUnsigned64Text
PUBLIC	?QueryBoolText@XMLElement@tinyxml2@@QEBA?AW4XMLError@2@PEA_N@Z ; tinyxml2::XMLElement::QueryBoolText
PUBLIC	?QueryDoubleText@XMLElement@tinyxml2@@QEBA?AW4XMLError@2@PEAN@Z ; tinyxml2::XMLElement::QueryDoubleText
PUBLIC	?QueryFloatText@XMLElement@tinyxml2@@QEBA?AW4XMLError@2@PEAM@Z ; tinyxml2::XMLElement::QueryFloatText
PUBLIC	?IntText@XMLElement@tinyxml2@@QEBAHH@Z		; tinyxml2::XMLElement::IntText
PUBLIC	?UnsignedText@XMLElement@tinyxml2@@QEBAII@Z	; tinyxml2::XMLElement::UnsignedText
PUBLIC	?Int64Text@XMLElement@tinyxml2@@QEBA_J_J@Z	; tinyxml2::XMLElement::Int64Text
PUBLIC	?Unsigned64Text@XMLElement@tinyxml2@@QEBA_K_K@Z	; tinyxml2::XMLElement::Unsigned64Text
PUBLIC	?BoolText@XMLElement@tinyxml2@@QEBA_N_N@Z	; tinyxml2::XMLElement::BoolText
PUBLIC	?DoubleText@XMLElement@tinyxml2@@QEBANN@Z	; tinyxml2::XMLElement::DoubleText
PUBLIC	?FloatText@XMLElement@tinyxml2@@QEBAMM@Z	; tinyxml2::XMLElement::FloatText
PUBLIC	?InsertNewChildElement@XMLElement@tinyxml2@@QEAAPEAV12@PEBD@Z ; tinyxml2::XMLElement::InsertNewChildElement
PUBLIC	?InsertNewComment@XMLElement@tinyxml2@@QEAAPEAVXMLComment@2@PEBD@Z ; tinyxml2::XMLElement::InsertNewComment
PUBLIC	?InsertNewText@XMLElement@tinyxml2@@QEAAPEAVXMLText@2@PEBD@Z ; tinyxml2::XMLElement::InsertNewText
PUBLIC	?InsertNewDeclaration@XMLElement@tinyxml2@@QEAAPEAVXMLDeclaration@2@PEBD@Z ; tinyxml2::XMLElement::InsertNewDeclaration
PUBLIC	?InsertNewUnknown@XMLElement@tinyxml2@@QEAAPEAVXMLUnknown@2@PEBD@Z ; tinyxml2::XMLElement::InsertNewUnknown
PUBLIC	?ClosingType@XMLElement@tinyxml2@@QEBA?AW4ElementClosingType@12@XZ ; tinyxml2::XMLElement::ClosingType
PUBLIC	?ShallowClone@XMLElement@tinyxml2@@UEBAPEAVXMLNode@2@PEAVXMLDocument@2@@Z ; tinyxml2::XMLElement::ShallowClone
PUBLIC	?ShallowEqual@XMLElement@tinyxml2@@UEBA_NPEBVXMLNode@2@@Z ; tinyxml2::XMLElement::ShallowEqual
PUBLIC	?ParseDeep@XMLElement@tinyxml2@@MEAAPEADPEADPEAVStrPair@2@PEAH@Z ; tinyxml2::XMLElement::ParseDeep
PUBLIC	??0XMLElement@tinyxml2@@AEAA@PEAVXMLDocument@1@@Z ; tinyxml2::XMLElement::XMLElement
PUBLIC	??1XMLElement@tinyxml2@@EEAA@XZ			; tinyxml2::XMLElement::~XMLElement
PUBLIC	?FindOrCreateAttribute@XMLElement@tinyxml2@@AEAAPEAVXMLAttribute@2@PEBD@Z ; tinyxml2::XMLElement::FindOrCreateAttribute
PUBLIC	?ParseAttributes@XMLElement@tinyxml2@@AEAAPEADPEADPEAH@Z ; tinyxml2::XMLElement::ParseAttributes
PUBLIC	?DeleteAttribute@XMLElement@tinyxml2@@CAXPEAVXMLAttribute@2@@Z ; tinyxml2::XMLElement::DeleteAttribute
PUBLIC	?CreateAttribute@XMLElement@tinyxml2@@AEAAPEAVXMLAttribute@2@XZ ; tinyxml2::XMLElement::CreateAttribute
PUBLIC	??_GXMLElement@tinyxml2@@EEAAPEAXI@Z		; tinyxml2::XMLElement::`scalar deleting destructor'
PUBLIC	??0XMLDocument@tinyxml2@@QEAA@_NW4Whitespace@1@@Z ; tinyxml2::XMLDocument::XMLDocument
PUBLIC	??1XMLDocument@tinyxml2@@UEAA@XZ		; tinyxml2::XMLDocument::~XMLDocument
PUBLIC	?ToDocument@XMLDocument@tinyxml2@@UEAAPEAV12@XZ	; tinyxml2::XMLDocument::ToDocument
PUBLIC	?ToDocument@XMLDocument@tinyxml2@@UEBAPEBV12@XZ	; tinyxml2::XMLDocument::ToDocument
PUBLIC	?Parse@XMLDocument@tinyxml2@@QEAA?AW4XMLError@2@PEBD_K@Z ; tinyxml2::XMLDocument::Parse
PUBLIC	?LoadFile@XMLDocument@tinyxml2@@QEAA?AW4XMLError@2@PEBD@Z ; tinyxml2::XMLDocument::LoadFile
PUBLIC	?LoadFile@XMLDocument@tinyxml2@@QEAA?AW4XMLError@2@PEAU_iobuf@@@Z ; tinyxml2::XMLDocument::LoadFile
PUBLIC	?SaveFile@XMLDocument@tinyxml2@@QEAA?AW4XMLError@2@PEBD_N@Z ; tinyxml2::XMLDocument::SaveFile
PUBLIC	?SaveFile@XMLDocument@tinyxml2@@QEAA?AW4XMLError@2@PEAU_iobuf@@_N@Z ; tinyxml2::XMLDocument::SaveFile
PUBLIC	?ProcessEntities@XMLDocument@tinyxml2@@QEBA_NXZ	; tinyxml2::XMLDocument::ProcessEntities
PUBLIC	?WhitespaceMode@XMLDocument@tinyxml2@@QEBA?AW4Whitespace@2@XZ ; tinyxml2::XMLDocument::WhitespaceMode
PUBLIC	?HasBOM@XMLDocument@tinyxml2@@QEBA_NXZ		; tinyxml2::XMLDocument::HasBOM
PUBLIC	?Print@XMLDocument@tinyxml2@@QEBAXPEAVXMLPrinter@2@@Z ; tinyxml2::XMLDocument::Print
PUBLIC	?Accept@XMLDocument@tinyxml2@@UEBA_NPEAVXMLVisitor@2@@Z ; tinyxml2::XMLDocument::Accept
PUBLIC	?NewElement@XMLDocument@tinyxml2@@QEAAPEAVXMLElement@2@PEBD@Z ; tinyxml2::XMLDocument::NewElement
PUBLIC	?NewComment@XMLDocument@tinyxml2@@QEAAPEAVXMLComment@2@PEBD@Z ; tinyxml2::XMLDocument::NewComment
PUBLIC	?NewText@XMLDocument@tinyxml2@@QEAAPEAVXMLText@2@PEBD@Z ; tinyxml2::XMLDocument::NewText
PUBLIC	?NewDeclaration@XMLDocument@tinyxml2@@QEAAPEAVXMLDeclaration@2@PEBD@Z ; tinyxml2::XMLDocument::NewDeclaration
PUBLIC	?NewUnknown@XMLDocument@tinyxml2@@QEAAPEAVXMLUnknown@2@PEBD@Z ; tinyxml2::XMLDocument::NewUnknown
PUBLIC	?DeleteNode@XMLDocument@tinyxml2@@QEAAXPEAVXMLNode@2@@Z ; tinyxml2::XMLDocument::DeleteNode
PUBLIC	?ClearError@XMLDocument@tinyxml2@@QEAAXXZ	; tinyxml2::XMLDocument::ClearError
PUBLIC	?Error@XMLDocument@tinyxml2@@QEBA_NXZ		; tinyxml2::XMLDocument::Error
PUBLIC	?ErrorName@XMLDocument@tinyxml2@@QEBAPEBDXZ	; tinyxml2::XMLDocument::ErrorName
PUBLIC	?ErrorIDToName@XMLDocument@tinyxml2@@SAPEBDW4XMLError@2@@Z ; tinyxml2::XMLDocument::ErrorIDToName
PUBLIC	?ErrorStr@XMLDocument@tinyxml2@@QEBAPEBDXZ	; tinyxml2::XMLDocument::ErrorStr
PUBLIC	?PrintError@XMLDocument@tinyxml2@@QEBAXXZ	; tinyxml2::XMLDocument::PrintError
PUBLIC	?Clear@XMLDocument@tinyxml2@@QEAAXXZ		; tinyxml2::XMLDocument::Clear
PUBLIC	?DeepCopy@XMLDocument@tinyxml2@@QEBAXPEAV12@@Z	; tinyxml2::XMLDocument::DeepCopy
PUBLIC	?Identify@XMLDocument@tinyxml2@@QEAAPEADPEADPEAPEAVXMLNode@2@@Z ; tinyxml2::XMLDocument::Identify
PUBLIC	?MarkInUse@XMLDocument@tinyxml2@@QEAAXQEBVXMLNode@2@@Z ; tinyxml2::XMLDocument::MarkInUse
PUBLIC	?ShallowClone@XMLDocument@tinyxml2@@UEBAPEAVXMLNode@2@PEAV12@@Z ; tinyxml2::XMLDocument::ShallowClone
PUBLIC	?ShallowEqual@XMLDocument@tinyxml2@@UEBA_NPEBVXMLNode@2@@Z ; tinyxml2::XMLDocument::ShallowEqual
PUBLIC	??0?$DynArray@PEAVXMLNode@tinyxml2@@$09@tinyxml2@@QEAA@XZ ; tinyxml2::DynArray<tinyxml2::XMLNode *,10>::DynArray<tinyxml2::XMLNode *,10>
PUBLIC	??1?$DynArray@PEAVXMLNode@tinyxml2@@$09@tinyxml2@@QEAA@XZ ; tinyxml2::DynArray<tinyxml2::XMLNode *,10>::~DynArray<tinyxml2::XMLNode *,10>
PUBLIC	?Push@?$DynArray@PEAVXMLNode@tinyxml2@@$09@tinyxml2@@QEAAXPEAVXMLNode@2@@Z ; tinyxml2::DynArray<tinyxml2::XMLNode *,10>::Push
PUBLIC	??A?$DynArray@PEAVXMLNode@tinyxml2@@$09@tinyxml2@@QEAAAEAPEAVXMLNode@1@H@Z ; tinyxml2::DynArray<tinyxml2::XMLNode *,10>::operator[]
PUBLIC	?Size@?$DynArray@PEAVXMLNode@tinyxml2@@$09@tinyxml2@@QEBAHXZ ; tinyxml2::DynArray<tinyxml2::XMLNode *,10>::Size
PUBLIC	?SwapRemove@?$DynArray@PEAVXMLNode@tinyxml2@@$09@tinyxml2@@QEAAXH@Z ; tinyxml2::DynArray<tinyxml2::XMLNode *,10>::SwapRemove
PUBLIC	?EnsureCapacity@?$DynArray@PEAVXMLNode@tinyxml2@@$09@tinyxml2@@AEAAXH@Z ; tinyxml2::DynArray<tinyxml2::XMLNode *,10>::EnsureCapacity
PUBLIC	??0?$MemPoolT@$0HI@@tinyxml2@@QEAA@XZ		; tinyxml2::MemPoolT<120>::MemPoolT<120>
PUBLIC	??1?$MemPoolT@$0HI@@tinyxml2@@UEAA@XZ		; tinyxml2::MemPoolT<120>::~MemPoolT<120>
PUBLIC	?Clear@?$MemPoolT@$0HI@@tinyxml2@@QEAAXXZ	; tinyxml2::MemPoolT<120>::Clear
PUBLIC	?ItemSize@?$MemPoolT@$0HI@@tinyxml2@@UEBAHXZ	; tinyxml2::MemPoolT<120>::ItemSize
PUBLIC	?Alloc@?$MemPoolT@$0HI@@tinyxml2@@UEAAPEAXXZ	; tinyxml2::MemPoolT<120>::Alloc
PUBLIC	?Free@?$MemPoolT@$0HI@@tinyxml2@@UEAAXPEAX@Z	; tinyxml2::MemPoolT<120>::Free
PUBLIC	?SetTracked@?$MemPoolT@$0HI@@tinyxml2@@UEAAXXZ	; tinyxml2::MemPoolT<120>::SetTracked
PUBLIC	??0?$DynArray@PEAUBlock@?$MemPoolT@$0HI@@tinyxml2@@$09@tinyxml2@@QEAA@XZ ; tinyxml2::DynArray<tinyxml2::MemPoolT<120>::Block *,10>::DynArray<tinyxml2::MemPoolT<120>::Block *,10>
PUBLIC	??1?$DynArray@PEAUBlock@?$MemPoolT@$0HI@@tinyxml2@@$09@tinyxml2@@QEAA@XZ ; tinyxml2::DynArray<tinyxml2::MemPoolT<120>::Block *,10>::~DynArray<tinyxml2::MemPoolT<120>::Block *,10>
PUBLIC	?Push@?$DynArray@PEAUBlock@?$MemPoolT@$0HI@@tinyxml2@@$09@tinyxml2@@QEAAXPEAUBlock@?$MemPoolT@$0HI@@2@@Z ; tinyxml2::DynArray<tinyxml2::MemPoolT<120>::Block *,10>::Push
PUBLIC	?Pop@?$DynArray@PEAUBlock@?$MemPoolT@$0HI@@tinyxml2@@$09@tinyxml2@@QEAAPEAUBlock@?$MemPoolT@$0HI@@2@XZ ; tinyxml2::DynArray<tinyxml2::MemPoolT<120>::Block *,10>::Pop
PUBLIC	?Empty@?$DynArray@PEAUBlock@?$MemPoolT@$0HI@@tinyxml2@@$09@tinyxml2@@QEBA_NXZ ; tinyxml2::DynArray<tinyxml2::MemPoolT<120>::Block *,10>::Empty
PUBLIC	?EnsureCapacity@?$DynArray@PEAUBlock@?$MemPoolT@$0HI@@tinyxml2@@$09@tinyxml2@@AEAAXH@Z ; tinyxml2::DynArray<tinyxml2::MemPoolT<120>::Block *,10>::EnsureCapacity
PUBLIC	??_G?$MemPoolT@$0HI@@tinyxml2@@UEAAPEAXI@Z	; tinyxml2::MemPoolT<120>::`scalar deleting destructor'
PUBLIC	??0?$MemPoolT@$0FA@@tinyxml2@@QEAA@XZ		; tinyxml2::MemPoolT<80>::MemPoolT<80>
PUBLIC	??1?$MemPoolT@$0FA@@tinyxml2@@UEAA@XZ		; tinyxml2::MemPoolT<80>::~MemPoolT<80>
PUBLIC	?Clear@?$MemPoolT@$0FA@@tinyxml2@@QEAAXXZ	; tinyxml2::MemPoolT<80>::Clear
PUBLIC	?ItemSize@?$MemPoolT@$0FA@@tinyxml2@@UEBAHXZ	; tinyxml2::MemPoolT<80>::ItemSize
PUBLIC	?Alloc@?$MemPoolT@$0FA@@tinyxml2@@UEAAPEAXXZ	; tinyxml2::MemPoolT<80>::Alloc
PUBLIC	?Free@?$MemPoolT@$0FA@@tinyxml2@@UEAAXPEAX@Z	; tinyxml2::MemPoolT<80>::Free
PUBLIC	?SetTracked@?$MemPoolT@$0FA@@tinyxml2@@UEAAXXZ	; tinyxml2::MemPoolT<80>::SetTracked
PUBLIC	??0?$DynArray@PEAUBlock@?$MemPoolT@$0FA@@tinyxml2@@$09@tinyxml2@@QEAA@XZ ; tinyxml2::DynArray<tinyxml2::MemPoolT<80>::Block *,10>::DynArray<tinyxml2::MemPoolT<80>::Block *,10>
PUBLIC	??1?$DynArray@PEAUBlock@?$MemPoolT@$0FA@@tinyxml2@@$09@tinyxml2@@QEAA@XZ ; tinyxml2::DynArray<tinyxml2::MemPoolT<80>::Block *,10>::~DynArray<tinyxml2::MemPoolT<80>::Block *,10>
PUBLIC	?Push@?$DynArray@PEAUBlock@?$MemPoolT@$0FA@@tinyxml2@@$09@tinyxml2@@QEAAXPEAUBlock@?$MemPoolT@$0FA@@2@@Z ; tinyxml2::DynArray<tinyxml2::MemPoolT<80>::Block *,10>::Push
PUBLIC	?Pop@?$DynArray@PEAUBlock@?$MemPoolT@$0FA@@tinyxml2@@$09@tinyxml2@@QEAAPEAUBlock@?$MemPoolT@$0FA@@2@XZ ; tinyxml2::DynArray<tinyxml2::MemPoolT<80>::Block *,10>::Pop
PUBLIC	?Empty@?$DynArray@PEAUBlock@?$MemPoolT@$0FA@@tinyxml2@@$09@tinyxml2@@QEBA_NXZ ; tinyxml2::DynArray<tinyxml2::MemPoolT<80>::Block *,10>::Empty
PUBLIC	?EnsureCapacity@?$DynArray@PEAUBlock@?$MemPoolT@$0FA@@tinyxml2@@$09@tinyxml2@@AEAAXH@Z ; tinyxml2::DynArray<tinyxml2::MemPoolT<80>::Block *,10>::EnsureCapacity
PUBLIC	??_G?$MemPoolT@$0FA@@tinyxml2@@UEAAPEAXI@Z	; tinyxml2::MemPoolT<80>::`scalar deleting destructor'
PUBLIC	??0?$MemPoolT@$0HA@@tinyxml2@@QEAA@XZ		; tinyxml2::MemPoolT<112>::MemPoolT<112>
PUBLIC	??1?$MemPoolT@$0HA@@tinyxml2@@UEAA@XZ		; tinyxml2::MemPoolT<112>::~MemPoolT<112>
PUBLIC	?Clear@?$MemPoolT@$0HA@@tinyxml2@@QEAAXXZ	; tinyxml2::MemPoolT<112>::Clear
PUBLIC	?ItemSize@?$MemPoolT@$0HA@@tinyxml2@@UEBAHXZ	; tinyxml2::MemPoolT<112>::ItemSize
PUBLIC	?Alloc@?$MemPoolT@$0HA@@tinyxml2@@UEAAPEAXXZ	; tinyxml2::MemPoolT<112>::Alloc
PUBLIC	?Free@?$MemPoolT@$0HA@@tinyxml2@@UEAAXPEAX@Z	; tinyxml2::MemPoolT<112>::Free
PUBLIC	?SetTracked@?$MemPoolT@$0HA@@tinyxml2@@UEAAXXZ	; tinyxml2::MemPoolT<112>::SetTracked
PUBLIC	??0?$DynArray@PEAUBlock@?$MemPoolT@$0HA@@tinyxml2@@$09@tinyxml2@@QEAA@XZ ; tinyxml2::DynArray<tinyxml2::MemPoolT<112>::Block *,10>::DynArray<tinyxml2::MemPoolT<112>::Block *,10>
PUBLIC	??1?$DynArray@PEAUBlock@?$MemPoolT@$0HA@@tinyxml2@@$09@tinyxml2@@QEAA@XZ ; tinyxml2::DynArray<tinyxml2::MemPoolT<112>::Block *,10>::~DynArray<tinyxml2::MemPoolT<112>::Block *,10>
PUBLIC	?Push@?$DynArray@PEAUBlock@?$MemPoolT@$0HA@@tinyxml2@@$09@tinyxml2@@QEAAXPEAUBlock@?$MemPoolT@$0HA@@2@@Z ; tinyxml2::DynArray<tinyxml2::MemPoolT<112>::Block *,10>::Push
PUBLIC	?Pop@?$DynArray@PEAUBlock@?$MemPoolT@$0HA@@tinyxml2@@$09@tinyxml2@@QEAAPEAUBlock@?$MemPoolT@$0HA@@2@XZ ; tinyxml2::DynArray<tinyxml2::MemPoolT<112>::Block *,10>::Pop
PUBLIC	?Empty@?$DynArray@PEAUBlock@?$MemPoolT@$0HA@@tinyxml2@@$09@tinyxml2@@QEBA_NXZ ; tinyxml2::DynArray<tinyxml2::MemPoolT<112>::Block *,10>::Empty
PUBLIC	?EnsureCapacity@?$DynArray@PEAUBlock@?$MemPoolT@$0HA@@tinyxml2@@$09@tinyxml2@@AEAAXH@Z ; tinyxml2::DynArray<tinyxml2::MemPoolT<112>::Block *,10>::EnsureCapacity
PUBLIC	??_G?$MemPoolT@$0HA@@tinyxml2@@UEAAPEAXI@Z	; tinyxml2::MemPoolT<112>::`scalar deleting destructor'
PUBLIC	??0?$MemPoolT@$0GI@@tinyxml2@@QEAA@XZ		; tinyxml2::MemPoolT<104>::MemPoolT<104>
PUBLIC	??1?$MemPoolT@$0GI@@tinyxml2@@UEAA@XZ		; tinyxml2::MemPoolT<104>::~MemPoolT<104>
PUBLIC	?Clear@?$MemPoolT@$0GI@@tinyxml2@@QEAAXXZ	; tinyxml2::MemPoolT<104>::Clear
PUBLIC	?ItemSize@?$MemPoolT@$0GI@@tinyxml2@@UEBAHXZ	; tinyxml2::MemPoolT<104>::ItemSize
PUBLIC	?Alloc@?$MemPoolT@$0GI@@tinyxml2@@UEAAPEAXXZ	; tinyxml2::MemPoolT<104>::Alloc
PUBLIC	?Free@?$MemPoolT@$0GI@@tinyxml2@@UEAAXPEAX@Z	; tinyxml2::MemPoolT<104>::Free
PUBLIC	?SetTracked@?$MemPoolT@$0GI@@tinyxml2@@UEAAXXZ	; tinyxml2::MemPoolT<104>::SetTracked
PUBLIC	??0?$DynArray@PEAUBlock@?$MemPoolT@$0GI@@tinyxml2@@$09@tinyxml2@@QEAA@XZ ; tinyxml2::DynArray<tinyxml2::MemPoolT<104>::Block *,10>::DynArray<tinyxml2::MemPoolT<104>::Block *,10>
PUBLIC	??1?$DynArray@PEAUBlock@?$MemPoolT@$0GI@@tinyxml2@@$09@tinyxml2@@QEAA@XZ ; tinyxml2::DynArray<tinyxml2::MemPoolT<104>::Block *,10>::~DynArray<tinyxml2::MemPoolT<104>::Block *,10>
PUBLIC	?Push@?$DynArray@PEAUBlock@?$MemPoolT@$0GI@@tinyxml2@@$09@tinyxml2@@QEAAXPEAUBlock@?$MemPoolT@$0GI@@2@@Z ; tinyxml2::DynArray<tinyxml2::MemPoolT<104>::Block *,10>::Push
PUBLIC	?Pop@?$DynArray@PEAUBlock@?$MemPoolT@$0GI@@tinyxml2@@$09@tinyxml2@@QEAAPEAUBlock@?$MemPoolT@$0GI@@2@XZ ; tinyxml2::DynArray<tinyxml2::MemPoolT<104>::Block *,10>::Pop
PUBLIC	?Empty@?$DynArray@PEAUBlock@?$MemPoolT@$0GI@@tinyxml2@@$09@tinyxml2@@QEBA_NXZ ; tinyxml2::DynArray<tinyxml2::MemPoolT<104>::Block *,10>::Empty
PUBLIC	?EnsureCapacity@?$DynArray@PEAUBlock@?$MemPoolT@$0GI@@tinyxml2@@$09@tinyxml2@@AEAAXH@Z ; tinyxml2::DynArray<tinyxml2::MemPoolT<104>::Block *,10>::EnsureCapacity
PUBLIC	??_G?$MemPoolT@$0GI@@tinyxml2@@UEAAPEAXI@Z	; tinyxml2::MemPoolT<104>::`scalar deleting destructor'
PUBLIC	?Parse@XMLDocument@tinyxml2@@AEAAXXZ		; tinyxml2::XMLDocument::Parse
PUBLIC	?SetError@XMLDocument@tinyxml2@@AEAAXW4XMLError@2@HPEBDZZ ; tinyxml2::XMLDocument::SetError
PUBLIC	??0DepthTracker@XMLDocument@tinyxml2@@QEAA@PEAV12@@Z ; tinyxml2::XMLDocument::DepthTracker::DepthTracker
PUBLIC	??1DepthTracker@XMLDocument@tinyxml2@@QEAA@XZ	; tinyxml2::XMLDocument::DepthTracker::~DepthTracker
PUBLIC	?PushDepth@XMLDocument@tinyxml2@@AEAAXXZ	; tinyxml2::XMLDocument::PushDepth
PUBLIC	?PopDepth@XMLDocument@tinyxml2@@AEAAXXZ		; tinyxml2::XMLDocument::PopDepth
PUBLIC	??_GXMLDocument@tinyxml2@@UEAAPEAXI@Z		; tinyxml2::XMLDocument::`scalar deleting destructor'
PUBLIC	??0XMLPrinter@tinyxml2@@QEAA@PEAU_iobuf@@_NH@Z	; tinyxml2::XMLPrinter::XMLPrinter
PUBLIC	??1XMLPrinter@tinyxml2@@UEAA@XZ			; tinyxml2::XMLPrinter::~XMLPrinter
PUBLIC	?PushHeader@XMLPrinter@tinyxml2@@QEAAX_N0@Z	; tinyxml2::XMLPrinter::PushHeader
PUBLIC	?OpenElement@XMLPrinter@tinyxml2@@QEAAXPEBD_N@Z	; tinyxml2::XMLPrinter::OpenElement
PUBLIC	?PushAttribute@XMLPrinter@tinyxml2@@QEAAXPEBD0@Z ; tinyxml2::XMLPrinter::PushAttribute
PUBLIC	?PushAttribute@XMLPrinter@tinyxml2@@QEAAXPEBDH@Z ; tinyxml2::XMLPrinter::PushAttribute
PUBLIC	?PushAttribute@XMLPrinter@tinyxml2@@QEAAXPEBDI@Z ; tinyxml2::XMLPrinter::PushAttribute
PUBLIC	?PushAttribute@XMLPrinter@tinyxml2@@QEAAXPEBD_J@Z ; tinyxml2::XMLPrinter::PushAttribute
PUBLIC	?PushAttribute@XMLPrinter@tinyxml2@@QEAAXPEBD_K@Z ; tinyxml2::XMLPrinter::PushAttribute
PUBLIC	?PushAttribute@XMLPrinter@tinyxml2@@QEAAXPEBD_N@Z ; tinyxml2::XMLPrinter::PushAttribute
PUBLIC	?PushAttribute@XMLPrinter@tinyxml2@@QEAAXPEBDN@Z ; tinyxml2::XMLPrinter::PushAttribute
PUBLIC	?CloseElement@XMLPrinter@tinyxml2@@UEAAX_N@Z	; tinyxml2::XMLPrinter::CloseElement
PUBLIC	?PushText@XMLPrinter@tinyxml2@@QEAAXPEBD_N@Z	; tinyxml2::XMLPrinter::PushText
PUBLIC	?PushText@XMLPrinter@tinyxml2@@QEAAXH@Z		; tinyxml2::XMLPrinter::PushText
PUBLIC	?PushText@XMLPrinter@tinyxml2@@QEAAXI@Z		; tinyxml2::XMLPrinter::PushText
PUBLIC	?PushText@XMLPrinter@tinyxml2@@QEAAX_J@Z	; tinyxml2::XMLPrinter::PushText
PUBLIC	?PushText@XMLPrinter@tinyxml2@@QEAAX_K@Z	; tinyxml2::XMLPrinter::PushText
PUBLIC	?PushText@XMLPrinter@tinyxml2@@QEAAX_N@Z	; tinyxml2::XMLPrinter::PushText
PUBLIC	?PushText@XMLPrinter@tinyxml2@@QEAAXM@Z		; tinyxml2::XMLPrinter::PushText
PUBLIC	?PushText@XMLPrinter@tinyxml2@@QEAAXN@Z		; tinyxml2::XMLPrinter::PushText
PUBLIC	?PushComment@XMLPrinter@tinyxml2@@QEAAXPEBD@Z	; tinyxml2::XMLPrinter::PushComment
PUBLIC	?PushDeclaration@XMLPrinter@tinyxml2@@QEAAXPEBD@Z ; tinyxml2::XMLPrinter::PushDeclaration
PUBLIC	?PushUnknown@XMLPrinter@tinyxml2@@QEAAXPEBD@Z	; tinyxml2::XMLPrinter::PushUnknown
PUBLIC	?VisitEnter@XMLPrinter@tinyxml2@@UEAA_NAEBVXMLDocument@2@@Z ; tinyxml2::XMLPrinter::VisitEnter
PUBLIC	?VisitExit@XMLPrinter@tinyxml2@@UEAA_NAEBVXMLDocument@2@@Z ; tinyxml2::XMLPrinter::VisitExit
PUBLIC	?VisitEnter@XMLPrinter@tinyxml2@@UEAA_NAEBVXMLElement@2@PEBVXMLAttribute@2@@Z ; tinyxml2::XMLPrinter::VisitEnter
PUBLIC	?VisitExit@XMLPrinter@tinyxml2@@UEAA_NAEBVXMLElement@2@@Z ; tinyxml2::XMLPrinter::VisitExit
PUBLIC	?Visit@XMLPrinter@tinyxml2@@UEAA_NAEBVXMLText@2@@Z ; tinyxml2::XMLPrinter::Visit
PUBLIC	?Visit@XMLPrinter@tinyxml2@@UEAA_NAEBVXMLComment@2@@Z ; tinyxml2::XMLPrinter::Visit
PUBLIC	?Visit@XMLPrinter@tinyxml2@@UEAA_NAEBVXMLDeclaration@2@@Z ; tinyxml2::XMLPrinter::Visit
PUBLIC	?Visit@XMLPrinter@tinyxml2@@UEAA_NAEBVXMLUnknown@2@@Z ; tinyxml2::XMLPrinter::Visit
PUBLIC	?CompactMode@XMLPrinter@tinyxml2@@MEAA_NAEBVXMLElement@2@@Z ; tinyxml2::XMLPrinter::CompactMode
PUBLIC	?PrintSpace@XMLPrinter@tinyxml2@@MEAAXH@Z	; tinyxml2::XMLPrinter::PrintSpace
PUBLIC	?Print@XMLPrinter@tinyxml2@@MEAAXPEBDZZ		; tinyxml2::XMLPrinter::Print
PUBLIC	?Write@XMLPrinter@tinyxml2@@MEAAXPEBD_K@Z	; tinyxml2::XMLPrinter::Write
PUBLIC	?Putc@XMLPrinter@tinyxml2@@MEAAXD@Z		; tinyxml2::XMLPrinter::Putc
PUBLIC	?Write@XMLPrinter@tinyxml2@@IEAAXPEBD@Z		; tinyxml2::XMLPrinter::Write
PUBLIC	?SealElementIfJustOpened@XMLPrinter@tinyxml2@@IEAAXXZ ; tinyxml2::XMLPrinter::SealElementIfJustOpened
PUBLIC	??0?$DynArray@PEBD$09@tinyxml2@@QEAA@XZ		; tinyxml2::DynArray<char const *,10>::DynArray<char const *,10>
PUBLIC	??1?$DynArray@PEBD$09@tinyxml2@@QEAA@XZ		; tinyxml2::DynArray<char const *,10>::~DynArray<char const *,10>
PUBLIC	?Push@?$DynArray@PEBD$09@tinyxml2@@QEAAXPEBD@Z	; tinyxml2::DynArray<char const *,10>::Push
PUBLIC	?Pop@?$DynArray@PEBD$09@tinyxml2@@QEAAPEBDXZ	; tinyxml2::DynArray<char const *,10>::Pop
PUBLIC	?EnsureCapacity@?$DynArray@PEBD$09@tinyxml2@@AEAAXH@Z ; tinyxml2::DynArray<char const *,10>::EnsureCapacity
PUBLIC	?PrepareForNewNode@XMLPrinter@tinyxml2@@AEAAX_N@Z ; tinyxml2::XMLPrinter::PrepareForNewNode
PUBLIC	?PrintString@XMLPrinter@tinyxml2@@AEAAXPEBD_N@Z	; tinyxml2::XMLPrinter::PrintString
PUBLIC	??0?$DynArray@D$0BE@@tinyxml2@@QEAA@XZ		; tinyxml2::DynArray<char,20>::DynArray<char,20>
PUBLIC	??1?$DynArray@D$0BE@@tinyxml2@@QEAA@XZ		; tinyxml2::DynArray<char,20>::~DynArray<char,20>
PUBLIC	?Push@?$DynArray@D$0BE@@tinyxml2@@QEAAXD@Z	; tinyxml2::DynArray<char,20>::Push
PUBLIC	?PushArr@?$DynArray@D$0BE@@tinyxml2@@QEAAPEADH@Z ; tinyxml2::DynArray<char,20>::PushArr
PUBLIC	?EnsureCapacity@?$DynArray@D$0BE@@tinyxml2@@AEAAXH@Z ; tinyxml2::DynArray<char,20>::EnsureCapacity
PUBLIC	??_GXMLPrinter@tinyxml2@@UEAAPEAXI@Z		; tinyxml2::XMLPrinter::`scalar deleting destructor'
PUBLIC	??2@YAPEAX_KPEAX@Z				; operator new
PUBLIC	??$CreateUnlinkedNode@VXMLDeclaration@tinyxml2@@$0GI@@XMLDocument@tinyxml2@@AEAAPEAVXMLDeclaration@1@AEAV?$MemPoolT@$0GI@@1@@Z ; tinyxml2::XMLDocument::CreateUnlinkedNode<tinyxml2::XMLDeclaration,104>
PUBLIC	??$CreateUnlinkedNode@VXMLComment@tinyxml2@@$0GI@@XMLDocument@tinyxml2@@AEAAPEAVXMLComment@1@AEAV?$MemPoolT@$0GI@@1@@Z ; tinyxml2::XMLDocument::CreateUnlinkedNode<tinyxml2::XMLComment,104>
PUBLIC	??$CreateUnlinkedNode@VXMLText@tinyxml2@@$0HA@@XMLDocument@tinyxml2@@AEAAPEAVXMLText@1@AEAV?$MemPoolT@$0HA@@1@@Z ; tinyxml2::XMLDocument::CreateUnlinkedNode<tinyxml2::XMLText,112>
PUBLIC	??$CreateUnlinkedNode@VXMLUnknown@tinyxml2@@$0GI@@XMLDocument@tinyxml2@@AEAAPEAVXMLUnknown@1@AEAV?$MemPoolT@$0GI@@1@@Z ; tinyxml2::XMLDocument::CreateUnlinkedNode<tinyxml2::XMLUnknown,104>
PUBLIC	??$CreateUnlinkedNode@VXMLElement@tinyxml2@@$0HI@@XMLDocument@tinyxml2@@AEAAPEAVXMLElement@1@AEAV?$MemPoolT@$0HI@@1@@Z ; tinyxml2::XMLDocument::CreateUnlinkedNode<tinyxml2::XMLElement,120>
PUBLIC	?_OptionsStorage@?1??__local_stdio_printf_options@@9@4_KA ; `__local_stdio_printf_options'::`2'::_OptionsStorage
PUBLIC	?_OptionsStorage@?1??__local_stdio_scanf_options@@9@4_KA ; `__local_stdio_scanf_options'::`2'::_OptionsStorage
PUBLIC	??_7MemPool@tinyxml2@@6B@			; tinyxml2::MemPool::`vftable'
PUBLIC	??_7XMLVisitor@tinyxml2@@6B@			; tinyxml2::XMLVisitor::`vftable'
PUBLIC	??_7XMLNode@tinyxml2@@6B@			; tinyxml2::XMLNode::`vftable'
PUBLIC	??_7XMLText@tinyxml2@@6B@			; tinyxml2::XMLText::`vftable'
PUBLIC	??_7XMLComment@tinyxml2@@6B@			; tinyxml2::XMLComment::`vftable'
PUBLIC	??_7XMLDeclaration@tinyxml2@@6B@		; tinyxml2::XMLDeclaration::`vftable'
PUBLIC	??_7XMLUnknown@tinyxml2@@6B@			; tinyxml2::XMLUnknown::`vftable'
PUBLIC	??_7XMLAttribute@tinyxml2@@6B@			; tinyxml2::XMLAttribute::`vftable'
PUBLIC	??_7XMLElement@tinyxml2@@6B@			; tinyxml2::XMLElement::`vftable'
PUBLIC	??_7?$MemPoolT@$0HI@@tinyxml2@@6B@		; tinyxml2::MemPoolT<120>::`vftable'
PUBLIC	??_7?$MemPoolT@$0FA@@tinyxml2@@6B@		; tinyxml2::MemPoolT<80>::`vftable'
PUBLIC	??_7?$MemPoolT@$0HA@@tinyxml2@@6B@		; tinyxml2::MemPoolT<112>::`vftable'
PUBLIC	??_7?$MemPoolT@$0GI@@tinyxml2@@6B@		; tinyxml2::MemPoolT<104>::`vftable'
PUBLIC	??_7XMLDocument@tinyxml2@@6B@			; tinyxml2::XMLDocument::`vftable'
PUBLIC	??_7XMLPrinter@tinyxml2@@6B@			; tinyxml2::XMLPrinter::`vftable'
PUBLIC	??_C@_02DPKJAMEF@?$CFd@				; `string'
PUBLIC	??_C@_02GMHACPFF@?$CFu@				; `string'
PUBLIC	??_C@_02DKCKIIND@?$CFs@				; `string'
PUBLIC	??_C@_04HANFDJND@?$CF?48g@			; `string'
PUBLIC	??_C@_05CEKCMKAN@?$CF?417g@			; `string'
PUBLIC	??_C@_04BFAHMMK@?$CFlld@			; `string'
PUBLIC	??_C@_04FCIJFPNK@?$CFllu@			; `string'
PUBLIC	??_C@_02NJNOFBBI@?$CFx@				; `string'
PUBLIC	??_C@_04HPMIDMKH@True@				; `string'
PUBLIC	??_C@_04HCDDPBNL@TRUE@				; `string'
PUBLIC	??_C@_05MKDOIIA@False@				; `string'
PUBLIC	??_C@_05MAJJAKPI@FALSE@				; `string'
PUBLIC	??_C@_02NJPGOMH@?$CFf@				; `string'
PUBLIC	??_C@_03DLDNIBIK@?$CFlf@			; `string'
PUBLIC	??_C@_04OHCHCBJH@?$CFllx@			; `string'
PUBLIC	??_C@_02HFBBBACF@?$DM?$DP@			; `string'
PUBLIC	??_C@_04FFDNBKGC@?$DM?$CB?9?9@			; `string'
PUBLIC	??_C@_09BLLNCBLF@?$DM?$CB?$FLCDATA?$FL@		; `string'
PUBLIC	??_C@_02KBFACPPK@?$DM?$CB@			; `string'
PUBLIC	??_C@_01MNNFJEPP@?$DM@				; `string'
PUBLIC	??_C@_0BI@GMNACMFN@XMLDeclaration?5value?$DN?$CFs@ ; `string'
PUBLIC	??_C@_0BD@BLOEEMNC@XMLElement?5name?$DN?$CFs@	; `string'
PUBLIC	??_C@_03MCHNFBAC@?$FN?$FN?$DO@			; `string'
PUBLIC	??_C@_03PNLDJJMO@?9?9?$DO@			; `string'
PUBLIC	??_C@_02GOEMJPDN@?$DP?$DO@			; `string'
PUBLIC	??_C@_01PPODPGHN@?$DO@				; `string'
PUBLIC	??_C@_0CD@MCGGMGEP@xml?5version?$DN?$CC1?40?$CC?5encoding?$DN?$CCUTF@ ; `string'
PUBLIC	??_C@_0BA@JJMHCBFE@filename?$DN?$DMnull?$DO@	; `string'
PUBLIC	??_C@_02JDPG@rb@				; `string'
PUBLIC	??_C@_0M@IADOOHPD@filename?$DN?$CFs@		; `string'
PUBLIC	??_C@_01NOFIACDB@w@				; `string'
PUBLIC	??_C@_0CK@LEBPANPP@Error?$DN?$CFs?5ErrorID?$DN?$CFd?5?$CI0x?$CFx?$CJ?5Line@ ; `string'
PUBLIC	??_C@_02LMMGGCAJ@?3?5@				; `string'
PUBLIC	??_C@_00CNPNBAHC@@				; `string'
PUBLIC	??_C@_03OFAPEBGM@?$CFs?6@			; `string'
PUBLIC	??_C@_0BN@IABAEAMP@Element?5nesting?5is?5too?5deep?4@ ; `string'
PUBLIC	??_C@_04PFOHOKJK@?5?5?5?5@			; `string'
PUBLIC	??_C@_0BC@CIAMHNHO@xml?5version?$DN?$CC1?40?$CC@ ; `string'
PUBLIC	??_C@_02ILLPBGAO@?$DN?$CC@			; `string'
PUBLIC	??_C@_02HCGKDMEN@?1?$DO@			; `string'
PUBLIC	??_C@_02DPNDACHE@?$DM?1@			; `string'
PUBLIC	??_R4XMLDocument@tinyxml2@@6B@			; tinyxml2::XMLDocument::`RTTI Complete Object Locator'
PUBLIC	??_R0?AVXMLDocument@tinyxml2@@@8		; tinyxml2::XMLDocument `RTTI Type Descriptor'
PUBLIC	??_R3XMLDocument@tinyxml2@@8			; tinyxml2::XMLDocument::`RTTI Class Hierarchy Descriptor'
PUBLIC	??_R2XMLDocument@tinyxml2@@8			; tinyxml2::XMLDocument::`RTTI Base Class Array'
PUBLIC	??_R1A@?0A@EA@XMLDocument@tinyxml2@@8		; tinyxml2::XMLDocument::`RTTI Base Class Descriptor at (0,-1,0,64)'
PUBLIC	??_R1A@?0A@EA@XMLNode@tinyxml2@@8		; tinyxml2::XMLNode::`RTTI Base Class Descriptor at (0,-1,0,64)'
PUBLIC	??_R0?AVXMLNode@tinyxml2@@@8			; tinyxml2::XMLNode `RTTI Type Descriptor'
PUBLIC	??_R3XMLNode@tinyxml2@@8			; tinyxml2::XMLNode::`RTTI Class Hierarchy Descriptor'
PUBLIC	??_R2XMLNode@tinyxml2@@8			; tinyxml2::XMLNode::`RTTI Base Class Array'
PUBLIC	??_R4XMLElement@tinyxml2@@6B@			; tinyxml2::XMLElement::`RTTI Complete Object Locator'
PUBLIC	??_R0?AVXMLElement@tinyxml2@@@8			; tinyxml2::XMLElement `RTTI Type Descriptor'
PUBLIC	??_R3XMLElement@tinyxml2@@8			; tinyxml2::XMLElement::`RTTI Class Hierarchy Descriptor'
PUBLIC	??_R2XMLElement@tinyxml2@@8			; tinyxml2::XMLElement::`RTTI Base Class Array'
PUBLIC	??_R1A@?0A@EA@XMLElement@tinyxml2@@8		; tinyxml2::XMLElement::`RTTI Base Class Descriptor at (0,-1,0,64)'
PUBLIC	??_R4XMLAttribute@tinyxml2@@6B@			; tinyxml2::XMLAttribute::`RTTI Complete Object Locator'
PUBLIC	??_R0?AVXMLAttribute@tinyxml2@@@8		; tinyxml2::XMLAttribute `RTTI Type Descriptor'
PUBLIC	??_R3XMLAttribute@tinyxml2@@8			; tinyxml2::XMLAttribute::`RTTI Class Hierarchy Descriptor'
PUBLIC	??_R2XMLAttribute@tinyxml2@@8			; tinyxml2::XMLAttribute::`RTTI Base Class Array'
PUBLIC	??_R1A@?0A@EA@XMLAttribute@tinyxml2@@8		; tinyxml2::XMLAttribute::`RTTI Base Class Descriptor at (0,-1,0,64)'
PUBLIC	??_R4XMLComment@tinyxml2@@6B@			; tinyxml2::XMLComment::`RTTI Complete Object Locator'
PUBLIC	??_R0?AVXMLComment@tinyxml2@@@8			; tinyxml2::XMLComment `RTTI Type Descriptor'
PUBLIC	??_R3XMLComment@tinyxml2@@8			; tinyxml2::XMLComment::`RTTI Class Hierarchy Descriptor'
PUBLIC	??_R2XMLComment@tinyxml2@@8			; tinyxml2::XMLComment::`RTTI Base Class Array'
PUBLIC	??_R1A@?0A@EA@XMLComment@tinyxml2@@8		; tinyxml2::XMLComment::`RTTI Base Class Descriptor at (0,-1,0,64)'
PUBLIC	??_R4XMLText@tinyxml2@@6B@			; tinyxml2::XMLText::`RTTI Complete Object Locator'
PUBLIC	??_R0?AVXMLText@tinyxml2@@@8			; tinyxml2::XMLText `RTTI Type Descriptor'
PUBLIC	??_R3XMLText@tinyxml2@@8			; tinyxml2::XMLText::`RTTI Class Hierarchy Descriptor'
PUBLIC	??_R2XMLText@tinyxml2@@8			; tinyxml2::XMLText::`RTTI Base Class Array'
PUBLIC	??_R1A@?0A@EA@XMLText@tinyxml2@@8		; tinyxml2::XMLText::`RTTI Base Class Descriptor at (0,-1,0,64)'
PUBLIC	??_R4XMLDeclaration@tinyxml2@@6B@		; tinyxml2::XMLDeclaration::`RTTI Complete Object Locator'
PUBLIC	??_R0?AVXMLDeclaration@tinyxml2@@@8		; tinyxml2::XMLDeclaration `RTTI Type Descriptor'
PUBLIC	??_R3XMLDeclaration@tinyxml2@@8			; tinyxml2::XMLDeclaration::`RTTI Class Hierarchy Descriptor'
PUBLIC	??_R2XMLDeclaration@tinyxml2@@8			; tinyxml2::XMLDeclaration::`RTTI Base Class Array'
PUBLIC	??_R1A@?0A@EA@XMLDeclaration@tinyxml2@@8	; tinyxml2::XMLDeclaration::`RTTI Base Class Descriptor at (0,-1,0,64)'
PUBLIC	??_R4XMLUnknown@tinyxml2@@6B@			; tinyxml2::XMLUnknown::`RTTI Complete Object Locator'
PUBLIC	??_R0?AVXMLUnknown@tinyxml2@@@8			; tinyxml2::XMLUnknown `RTTI Type Descriptor'
PUBLIC	??_R3XMLUnknown@tinyxml2@@8			; tinyxml2::XMLUnknown::`RTTI Class Hierarchy Descriptor'
PUBLIC	??_R2XMLUnknown@tinyxml2@@8			; tinyxml2::XMLUnknown::`RTTI Base Class Array'
PUBLIC	??_R1A@?0A@EA@XMLUnknown@tinyxml2@@8		; tinyxml2::XMLUnknown::`RTTI Base Class Descriptor at (0,-1,0,64)'
PUBLIC	??_R4XMLPrinter@tinyxml2@@6B@			; tinyxml2::XMLPrinter::`RTTI Complete Object Locator'
PUBLIC	??_R0?AVXMLPrinter@tinyxml2@@@8			; tinyxml2::XMLPrinter `RTTI Type Descriptor'
PUBLIC	??_R3XMLPrinter@tinyxml2@@8			; tinyxml2::XMLPrinter::`RTTI Class Hierarchy Descriptor'
PUBLIC	??_R2XMLPrinter@tinyxml2@@8			; tinyxml2::XMLPrinter::`RTTI Base Class Array'
PUBLIC	??_R1A@?0A@EA@XMLPrinter@tinyxml2@@8		; tinyxml2::XMLPrinter::`RTTI Base Class Descriptor at (0,-1,0,64)'
PUBLIC	??_R1A@?0A@EA@XMLVisitor@tinyxml2@@8		; tinyxml2::XMLVisitor::`RTTI Base Class Descriptor at (0,-1,0,64)'
PUBLIC	??_R0?AVXMLVisitor@tinyxml2@@@8			; tinyxml2::XMLVisitor `RTTI Type Descriptor'
PUBLIC	??_R3XMLVisitor@tinyxml2@@8			; tinyxml2::XMLVisitor::`RTTI Class Hierarchy Descriptor'
PUBLIC	??_R2XMLVisitor@tinyxml2@@8			; tinyxml2::XMLVisitor::`RTTI Base Class Array'
PUBLIC	??_R4MemPool@tinyxml2@@6B@			; tinyxml2::MemPool::`RTTI Complete Object Locator'
PUBLIC	??_R0?AVMemPool@tinyxml2@@@8			; tinyxml2::MemPool `RTTI Type Descriptor'
PUBLIC	??_R3MemPool@tinyxml2@@8			; tinyxml2::MemPool::`RTTI Class Hierarchy Descriptor'
PUBLIC	??_R2MemPool@tinyxml2@@8			; tinyxml2::MemPool::`RTTI Base Class Array'
PUBLIC	??_R1A@?0A@EA@MemPool@tinyxml2@@8		; tinyxml2::MemPool::`RTTI Base Class Descriptor at (0,-1,0,64)'
PUBLIC	??_R4XMLVisitor@tinyxml2@@6B@			; tinyxml2::XMLVisitor::`RTTI Complete Object Locator'
PUBLIC	??_R4XMLNode@tinyxml2@@6B@			; tinyxml2::XMLNode::`RTTI Complete Object Locator'
PUBLIC	??_R4?$MemPoolT@$0HI@@tinyxml2@@6B@		; tinyxml2::MemPoolT<120>::`RTTI Complete Object Locator'
PUBLIC	??_R0?AV?$MemPoolT@$0HI@@tinyxml2@@@8		; tinyxml2::MemPoolT<120> `RTTI Type Descriptor'
PUBLIC	??_R3?$MemPoolT@$0HI@@tinyxml2@@8		; tinyxml2::MemPoolT<120>::`RTTI Class Hierarchy Descriptor'
PUBLIC	??_R2?$MemPoolT@$0HI@@tinyxml2@@8		; tinyxml2::MemPoolT<120>::`RTTI Base Class Array'
PUBLIC	??_R1A@?0A@EA@?$MemPoolT@$0HI@@tinyxml2@@8	; tinyxml2::MemPoolT<120>::`RTTI Base Class Descriptor at (0,-1,0,64)'
PUBLIC	??_R4?$MemPoolT@$0FA@@tinyxml2@@6B@		; tinyxml2::MemPoolT<80>::`RTTI Complete Object Locator'
PUBLIC	??_R0?AV?$MemPoolT@$0FA@@tinyxml2@@@8		; tinyxml2::MemPoolT<80> `RTTI Type Descriptor'
PUBLIC	??_R3?$MemPoolT@$0FA@@tinyxml2@@8		; tinyxml2::MemPoolT<80>::`RTTI Class Hierarchy Descriptor'
PUBLIC	??_R2?$MemPoolT@$0FA@@tinyxml2@@8		; tinyxml2::MemPoolT<80>::`RTTI Base Class Array'
PUBLIC	??_R1A@?0A@EA@?$MemPoolT@$0FA@@tinyxml2@@8	; tinyxml2::MemPoolT<80>::`RTTI Base Class Descriptor at (0,-1,0,64)'
PUBLIC	??_R4?$MemPoolT@$0HA@@tinyxml2@@6B@		; tinyxml2::MemPoolT<112>::`RTTI Complete Object Locator'
PUBLIC	??_R0?AV?$MemPoolT@$0HA@@tinyxml2@@@8		; tinyxml2::MemPoolT<112> `RTTI Type Descriptor'
PUBLIC	??_R3?$MemPoolT@$0HA@@tinyxml2@@8		; tinyxml2::MemPoolT<112>::`RTTI Class Hierarchy Descriptor'
PUBLIC	??_R2?$MemPoolT@$0HA@@tinyxml2@@8		; tinyxml2::MemPoolT<112>::`RTTI Base Class Array'
PUBLIC	??_R1A@?0A@EA@?$MemPoolT@$0HA@@tinyxml2@@8	; tinyxml2::MemPoolT<112>::`RTTI Base Class Descriptor at (0,-1,0,64)'
PUBLIC	??_R4?$MemPoolT@$0GI@@tinyxml2@@6B@		; tinyxml2::MemPoolT<104>::`RTTI Complete Object Locator'
PUBLIC	??_R0?AV?$MemPoolT@$0GI@@tinyxml2@@@8		; tinyxml2::MemPoolT<104> `RTTI Type Descriptor'
PUBLIC	??_R3?$MemPoolT@$0GI@@tinyxml2@@8		; tinyxml2::MemPoolT<104>::`RTTI Class Hierarchy Descriptor'
PUBLIC	??_R2?$MemPoolT@$0GI@@tinyxml2@@8		; tinyxml2::MemPoolT<104>::`RTTI Base Class Array'
PUBLIC	??_R1A@?0A@EA@?$MemPoolT@$0GI@@tinyxml2@@8	; tinyxml2::MemPoolT<104>::`RTTI Base Class Descriptor at (0,-1,0,64)'
EXTRN	_purecall:PROC
EXTRN	??2@YAPEAX_K@Z:PROC				; operator new
EXTRN	??3@YAXPEAX_K@Z:PROC				; operator delete
EXTRN	??_U@YAPEAX_K@Z:PROC				; operator new[]
EXTRN	??_V@YAXPEAX@Z:PROC				; operator delete[]
EXTRN	__imp_isalpha:PROC
EXTRN	__imp_isdigit:PROC
EXTRN	__imp_isspace:PROC
EXTRN	__imp___acrt_iob_func:PROC
EXTRN	__imp_fopen_s:PROC
EXTRN	__imp_fclose:PROC
EXTRN	__imp_ferror:PROC
EXTRN	__imp_fgetc:PROC
EXTRN	__imp_fputc:PROC
EXTRN	__imp_fread:PROC
EXTRN	__imp__fseeki64:PROC
EXTRN	__imp__ftelli64:PROC
EXTRN	__imp_fwrite:PROC
EXTRN	__imp___stdio_common_vfprintf:PROC
EXTRN	__imp___stdio_common_vsprintf:PROC
EXTRN	__imp___stdio_common_vsnprintf_s:PROC
EXTRN	__imp___stdio_common_vsscanf:PROC
EXTRN	strchr:PROC
EXTRN	__imp_strncmp:PROC
EXTRN	??_EMemPool@tinyxml2@@UEAAPEAXI@Z:PROC		; tinyxml2::MemPool::`vector deleting destructor'
EXTRN	??_EXMLVisitor@tinyxml2@@UEAAPEAXI@Z:PROC	; tinyxml2::XMLVisitor::`vector deleting destructor'
EXTRN	??_EXMLNode@tinyxml2@@MEAAPEAXI@Z:PROC		; tinyxml2::XMLNode::`vector deleting destructor'
EXTRN	??_EXMLText@tinyxml2@@MEAAPEAXI@Z:PROC		; tinyxml2::XMLText::`vector deleting destructor'
EXTRN	??_EXMLComment@tinyxml2@@MEAAPEAXI@Z:PROC	; tinyxml2::XMLComment::`vector deleting destructor'
EXTRN	??_EXMLDeclaration@tinyxml2@@MEAAPEAXI@Z:PROC	; tinyxml2::XMLDeclaration::`vector deleting destructor'
EXTRN	??_EXMLUnknown@tinyxml2@@MEAAPEAXI@Z:PROC	; tinyxml2::XMLUnknown::`vector deleting destructor'
EXTRN	??_EXMLAttribute@tinyxml2@@EEAAPEAXI@Z:PROC	; tinyxml2::XMLAttribute::`vector deleting destructor'
EXTRN	??_EXMLElement@tinyxml2@@EEAAPEAXI@Z:PROC	; tinyxml2::XMLElement::`vector deleting destructor'
EXTRN	??_E?$MemPoolT@$0HI@@tinyxml2@@UEAAPEAXI@Z:PROC	; tinyxml2::MemPoolT<120>::`vector deleting destructor'
EXTRN	??_E?$MemPoolT@$0FA@@tinyxml2@@UEAAPEAXI@Z:PROC	; tinyxml2::MemPoolT<80>::`vector deleting destructor'
EXTRN	??_E?$MemPoolT@$0HA@@tinyxml2@@UEAAPEAXI@Z:PROC	; tinyxml2::MemPoolT<112>::`vector deleting destructor'
EXTRN	??_E?$MemPoolT@$0GI@@tinyxml2@@UEAAPEAXI@Z:PROC	; tinyxml2::MemPoolT<104>::`vector deleting destructor'
EXTRN	??_EXMLDocument@tinyxml2@@UEAAPEAXI@Z:PROC	; tinyxml2::XMLDocument::`vector deleting destructor'
EXTRN	??_EXMLPrinter@tinyxml2@@UEAAPEAXI@Z:PROC	; tinyxml2::XMLPrinter::`vector deleting destructor'
EXTRN	__GSHandlerCheck:PROC
EXTRN	__security_check_cookie:PROC
EXTRN	memcpy:PROC
EXTRN	memset:PROC
EXTRN	??_7type_info@@6B@:BYTE				; type_info::`vftable'
EXTRN	__ImageBase:BYTE
EXTRN	__security_cookie:QWORD
EXTRN	_fltused:DWORD
;	COMDAT ?_OptionsStorage@?1??__local_stdio_printf_options@@9@4_KA
_BSS	SEGMENT
?_OptionsStorage@?1??__local_stdio_printf_options@@9@4_KA DQ 01H DUP (?) ; `__local_stdio_printf_options'::`2'::_OptionsStorage
_BSS	ENDS
;	COMDAT ?_OptionsStorage@?1??__local_stdio_scanf_options@@9@4_KA
_BSS	SEGMENT
?_OptionsStorage@?1??__local_stdio_scanf_options@@9@4_KA DQ 01H DUP (?) ; `__local_stdio_scanf_options'::`2'::_OptionsStorage
_BSS	ENDS
;	COMDAT pdata
pdata	SEGMENT
$pdata$_vfprintf_l DD imagerel $LN4
	DD	imagerel $LN4+81
	DD	imagerel $unwind$_vfprintf_l
pdata	ENDS
;	COMDAT pdata
pdata	SEGMENT
$pdata$vfprintf DD imagerel $LN6
	DD	imagerel $LN6+68
	DD	imagerel $unwind$vfprintf
pdata	ENDS
;	COMDAT pdata
pdata	SEGMENT
$pdata$printf DD imagerel $LN6
	DD	imagerel $LN6+82
	DD	imagerel $unwind$printf
pdata	ENDS
;	COMDAT pdata
pdata	SEGMENT
$pdata$_vsnprintf_s_l DD imagerel $LN4
	DD	imagerel $LN4+111
	DD	imagerel $unwind$_vsnprintf_s_l
pdata	ENDS
;	COMDAT pdata
pdata	SEGMENT
$pdata$vsnprintf_s DD imagerel $LN6
	DD	imagerel $LN6+110
	DD	imagerel $unwind$vsnprintf_s
pdata	ENDS
;	COMDAT pdata
pdata	SEGMENT
$pdata$_vscprintf_l DD imagerel $LN4
	DD	imagerel $LN4+86
	DD	imagerel $unwind$_vscprintf_l
pdata	ENDS
;	COMDAT pdata
pdata	SEGMENT
$pdata$_vscprintf DD imagerel $LN6
	DD	imagerel $LN6+77
	DD	imagerel $unwind$_vscprintf
pdata	ENDS
;	COMDAT pdata
pdata	SEGMENT
$pdata$_vsscanf_s_l DD imagerel $LN4
	DD	imagerel $LN4+94
	DD	imagerel $unwind$_vsscanf_s_l
pdata	ENDS
;	COMDAT pdata
pdata	SEGMENT
$pdata$vsscanf_s DD imagerel $LN6
	DD	imagerel $LN6+85
	DD	imagerel $unwind$vsscanf_s
pdata	ENDS
;	COMDAT pdata
pdata	SEGMENT
$pdata$sscanf_s DD imagerel $LN8
	DD	imagerel $LN8+86
	DD	imagerel $unwind$sscanf_s
pdata	ENDS
;	COMDAT pdata
pdata	SEGMENT
$pdata$??1StrPair@tinyxml2@@QEAA@XZ DD imagerel $LN7
	DD	imagerel $LN7+44
	DD	imagerel $unwind$??1StrPair@tinyxml2@@QEAA@XZ
pdata	ENDS
;	COMDAT pdata
pdata	SEGMENT
$pdata$?Set@StrPair@tinyxml2@@QEAAXPEAD0H@Z DD imagerel $LN7
	DD	imagerel $LN7+84
	DD	imagerel $unwind$?Set@StrPair@tinyxml2@@QEAAXPEAD0H@Z
pdata	ENDS
;	COMDAT pdata
pdata	SEGMENT
$pdata$?GetStr@StrPair@tinyxml2@@QEAAPEBDXZ DD imagerel $LN101
	DD	imagerel $LN101+43
	DD	imagerel $unwind$?GetStr@StrPair@tinyxml2@@QEAAPEBDXZ
pdata	ENDS
;	COMDAT pdata
pdata	SEGMENT
$pdata$1$?GetStr@StrPair@tinyxml2@@QEAAPEBDXZ DD imagerel $LN101+43
	DD	imagerel $LN101+70
	DD	imagerel $chain$1$?GetStr@StrPair@tinyxml2@@QEAAPEBDXZ
pdata	ENDS
;	COMDAT pdata
pdata	SEGMENT
$pdata$2$?GetStr@StrPair@tinyxml2@@QEAAPEBDXZ DD imagerel $LN101+70
	DD	imagerel $LN101+87
	DD	imagerel $chain$2$?GetStr@StrPair@tinyxml2@@QEAAPEBDXZ
pdata	ENDS
;	COMDAT pdata
pdata	SEGMENT
$pdata$6$?GetStr@StrPair@tinyxml2@@QEAAPEBDXZ DD imagerel $LN101+87
	DD	imagerel $LN101+399
	DD	imagerel $chain$6$?GetStr@StrPair@tinyxml2@@QEAAPEBDXZ
pdata	ENDS
;	COMDAT pdata
pdata	SEGMENT
$pdata$7$?GetStr@StrPair@tinyxml2@@QEAAPEBDXZ DD imagerel $LN101+399
	DD	imagerel $LN101+410
	DD	imagerel $chain$7$?GetStr@StrPair@tinyxml2@@QEAAPEBDXZ
pdata	ENDS
;	COMDAT pdata
pdata	SEGMENT
$pdata$8$?GetStr@StrPair@tinyxml2@@QEAAPEBDXZ DD imagerel $LN101+410
	DD	imagerel $LN101+615
	DD	imagerel $chain$8$?GetStr@StrPair@tinyxml2@@QEAAPEBDXZ
pdata	ENDS
;	COMDAT pdata
pdata	SEGMENT
$pdata$9$?GetStr@StrPair@tinyxml2@@QEAAPEBDXZ DD imagerel $LN101+615
	DD	imagerel $LN101+639
	DD	imagerel $chain$9$?GetStr@StrPair@tinyxml2@@QEAAPEBDXZ
pdata	ENDS
;	COMDAT pdata
pdata	SEGMENT
$pdata$?SetInternedStr@StrPair@tinyxml2@@QEAAXPEBD@Z DD imagerel $LN7
	DD	imagerel $LN7+56
	DD	imagerel $unwind$?SetInternedStr@StrPair@tinyxml2@@QEAAXPEBD@Z
pdata	ENDS
;	COMDAT pdata
pdata	SEGMENT
$pdata$?SetStr@StrPair@tinyxml2@@QEAAXPEBDH@Z DD imagerel $LN8
	DD	imagerel $LN8+153
	DD	imagerel $unwind$?SetStr@StrPair@tinyxml2@@QEAAXPEBDH@Z
pdata	ENDS
;	COMDAT pdata
pdata	SEGMENT
$pdata$?ParseText@StrPair@tinyxml2@@QEAAPEADPEADPEBDHPEAH@Z DD imagerel $LN21
	DD	imagerel $LN21+193
	DD	imagerel $unwind$?ParseText@StrPair@tinyxml2@@QEAAPEADPEADPEBDHPEAH@Z
pdata	ENDS
;	COMDAT pdata
pdata	SEGMENT
$pdata$?ParseName@StrPair@tinyxml2@@QEAAPEADPEAD@Z DD imagerel $LN36
	DD	imagerel $LN36+77
	DD	imagerel $unwind$?ParseName@StrPair@tinyxml2@@QEAAPEADPEAD@Z
pdata	ENDS
;	COMDAT pdata
pdata	SEGMENT
$pdata$0$?ParseName@StrPair@tinyxml2@@QEAAPEADPEAD@Z DD imagerel $LN36+77
	DD	imagerel $LN36+92
	DD	imagerel $chain$0$?ParseName@StrPair@tinyxml2@@QEAAPEADPEAD@Z
pdata	ENDS
;	COMDAT pdata
pdata	SEGMENT
$pdata$1$?ParseName@StrPair@tinyxml2@@QEAAPEADPEAD@Z DD imagerel $LN36+92
	DD	imagerel $LN36+163
	DD	imagerel $chain$1$?ParseName@StrPair@tinyxml2@@QEAAPEADPEAD@Z
pdata	ENDS
;	COMDAT pdata
pdata	SEGMENT
$pdata$2$?ParseName@StrPair@tinyxml2@@QEAAPEADPEAD@Z DD imagerel $LN36+163
	DD	imagerel $LN36+205
	DD	imagerel $chain$2$?ParseName@StrPair@tinyxml2@@QEAAPEADPEAD@Z
pdata	ENDS
;	COMDAT pdata
pdata	SEGMENT
$pdata$3$?ParseName@StrPair@tinyxml2@@QEAAPEADPEAD@Z DD imagerel $LN36+205
	DD	imagerel $LN36+224
	DD	imagerel $chain$3$?ParseName@StrPair@tinyxml2@@QEAAPEADPEAD@Z
pdata	ENDS
;	COMDAT pdata
pdata	SEGMENT
$pdata$?TransferTo@StrPair@tinyxml2@@QEAAXPEAV12@@Z DD imagerel $LN9
	DD	imagerel $LN9+91
	DD	imagerel $unwind$?TransferTo@StrPair@tinyxml2@@QEAAXPEAV12@@Z
pdata	ENDS
;	COMDAT pdata
pdata	SEGMENT
$pdata$?Reset@StrPair@tinyxml2@@QEAAXXZ DD imagerel $LN5
	DD	imagerel $LN5+44
	DD	imagerel $unwind$?Reset@StrPair@tinyxml2@@QEAAXXZ
pdata	ENDS
;	COMDAT pdata
pdata	SEGMENT
$pdata$?CollapseWhitespace@StrPair@tinyxml2@@AEAAXXZ DD imagerel $LN56
	DD	imagerel $LN56+169
	DD	imagerel $unwind$?CollapseWhitespace@StrPair@tinyxml2@@AEAAXXZ
pdata	ENDS
;	COMDAT pdata
pdata	SEGMENT
$pdata$??_GMemPool@tinyxml2@@UEAAPEAXI@Z DD imagerel $LN6
	DD	imagerel $LN6+43
	DD	imagerel $unwind$??_GMemPool@tinyxml2@@UEAAPEAXI@Z
pdata	ENDS
;	COMDAT pdata
pdata	SEGMENT
$pdata$??_GXMLVisitor@tinyxml2@@UEAAPEAXI@Z DD imagerel $LN6
	DD	imagerel $LN6+43
	DD	imagerel $unwind$??_GXMLVisitor@tinyxml2@@UEAAPEAXI@Z
pdata	ENDS
;	COMDAT pdata
pdata	SEGMENT
$pdata$?SkipWhiteSpace@XMLUtil@tinyxml2@@SAPEBDPEBDPEAH@Z DD imagerel $LN20
	DD	imagerel $LN20+70
	DD	imagerel $unwind$?SkipWhiteSpace@XMLUtil@tinyxml2@@SAPEBDPEBDPEAH@Z
pdata	ENDS
;	COMDAT pdata
pdata	SEGMENT
$pdata$?SkipWhiteSpace@XMLUtil@tinyxml2@@SAPEADQEADPEAH@Z DD imagerel $LN22
	DD	imagerel $LN22+70
	DD	imagerel $unwind$?SkipWhiteSpace@XMLUtil@tinyxml2@@SAPEADQEADPEAH@Z
pdata	ENDS
;	COMDAT pdata
pdata	SEGMENT
$pdata$?IsWhiteSpace@XMLUtil@tinyxml2@@SA_ND@Z DD imagerel $LN8
	DD	imagerel $LN8+41
	DD	imagerel $unwind$?IsWhiteSpace@XMLUtil@tinyxml2@@SA_ND@Z
pdata	ENDS
;	COMDAT pdata
pdata	SEGMENT
$pdata$?IsNameStartChar@XMLUtil@tinyxml2@@SA_NE@Z DD imagerel $LN9
	DD	imagerel $LN9+50
	DD	imagerel $unwind$?IsNameStartChar@XMLUtil@tinyxml2@@SA_NE@Z
pdata	ENDS
;	COMDAT pdata
pdata	SEGMENT
$pdata$?IsNameChar@XMLUtil@tinyxml2@@SA_NE@Z DD imagerel $LN15
	DD	imagerel $LN15+84
	DD	imagerel $unwind$?IsNameChar@XMLUtil@tinyxml2@@SA_NE@Z
pdata	ENDS
;	COMDAT pdata
pdata	SEGMENT
$pdata$?IsPrefixHex@XMLUtil@tinyxml2@@SA_NPEBD@Z DD imagerel $LN25
	DD	imagerel $LN25+78
	DD	imagerel $unwind$?IsPrefixHex@XMLUtil@tinyxml2@@SA_NPEBD@Z
pdata	ENDS
;	COMDAT pdata
pdata	SEGMENT
$pdata$?StringEqual@XMLUtil@tinyxml2@@SA_NPEBD0H@Z DD imagerel $LN5
	DD	imagerel $LN5+35
	DD	imagerel $unwind$?StringEqual@XMLUtil@tinyxml2@@SA_NPEBD0H@Z
pdata	ENDS
;	COMDAT pdata
pdata	SEGMENT
$pdata$?GetCharacterRef@XMLUtil@tinyxml2@@SAPEBDPEBDPEADPEAH@Z DD imagerel $LN50
	DD	imagerel $LN50+67
	DD	imagerel $unwind$?GetCharacterRef@XMLUtil@tinyxml2@@SAPEBDPEBDPEADPEAH@Z
pdata	ENDS
;	COMDAT pdata
pdata	SEGMENT
$pdata$1$?GetCharacterRef@XMLUtil@tinyxml2@@SAPEBDPEBDPEADPEAH@Z DD imagerel $LN50+67
	DD	imagerel $LN50+504
	DD	imagerel $chain$1$?GetCharacterRef@XMLUtil@tinyxml2@@SAPEBDPEBDPEADPEAH@Z
pdata	ENDS
;	COMDAT pdata
pdata	SEGMENT
$pdata$2$?GetCharacterRef@XMLUtil@tinyxml2@@SAPEBDPEBDPEADPEAH@Z DD imagerel $LN50+504
	DD	imagerel $LN50+528
	DD	imagerel $chain$2$?GetCharacterRef@XMLUtil@tinyxml2@@SAPEBDPEBDPEADPEAH@Z
pdata	ENDS
;	COMDAT pdata
pdata	SEGMENT
$pdata$3$?GetCharacterRef@XMLUtil@tinyxml2@@SAPEBDPEBDPEADPEAH@Z DD imagerel $LN50+528
	DD	imagerel $LN50+532
	DD	imagerel $chain$3$?GetCharacterRef@XMLUtil@tinyxml2@@SAPEBDPEBDPEADPEAH@Z
pdata	ENDS
;	COMDAT pdata
pdata	SEGMENT
$pdata$4$?GetCharacterRef@XMLUtil@tinyxml2@@SAPEBDPEBDPEADPEAH@Z DD imagerel $LN50+532
	DD	imagerel $LN50+538
	DD	imagerel $chain$4$?GetCharacterRef@XMLUtil@tinyxml2@@SAPEBDPEBDPEADPEAH@Z
pdata	ENDS
;	COMDAT pdata
pdata	SEGMENT
$pdata$?ConvertUTF32ToUTF8@XMLUtil@tinyxml2@@SAXKPEADPEAH@Z DD imagerel $LN19
	DD	imagerel $LN19+261
	DD	imagerel $unwind$?ConvertUTF32ToUTF8@XMLUtil@tinyxml2@@SAXKPEADPEAH@Z
pdata	ENDS
;	COMDAT pdata
pdata	SEGMENT
$pdata$?ToInt@XMLUtil@tinyxml2@@SA_NPEBDPEAH@Z DD imagerel $LN33
	DD	imagerel $LN33+175
	DD	imagerel $unwind$?ToInt@XMLUtil@tinyxml2@@SA_NPEBDPEAH@Z
pdata	ENDS
;	COMDAT pdata
pdata	SEGMENT
$pdata$?ToUnsigned@XMLUtil@tinyxml2@@SA_NPEBDPEAI@Z DD imagerel $LN28
	DD	imagerel $LN28+144
	DD	imagerel $unwind$?ToUnsigned@XMLUtil@tinyxml2@@SA_NPEBDPEAI@Z
pdata	ENDS
;	COMDAT pdata
pdata	SEGMENT
$pdata$?ToBool@XMLUtil@tinyxml2@@SA_NPEBDPEA_N@Z DD imagerel $LN35
	DD	imagerel $LN35+63
	DD	imagerel $unwind$?ToBool@XMLUtil@tinyxml2@@SA_NPEBDPEA_N@Z
pdata	ENDS
;	COMDAT pdata
pdata	SEGMENT
$pdata$1$?ToBool@XMLUtil@tinyxml2@@SA_NPEBDPEA_N@Z DD imagerel $LN35+63
	DD	imagerel $LN35+208
	DD	imagerel $chain$1$?ToBool@XMLUtil@tinyxml2@@SA_NPEBDPEA_N@Z
pdata	ENDS
;	COMDAT pdata
pdata	SEGMENT
$pdata$3$?ToBool@XMLUtil@tinyxml2@@SA_NPEBDPEA_N@Z DD imagerel $LN35+208
	DD	imagerel $LN35+224
	DD	imagerel $chain$3$?ToBool@XMLUtil@tinyxml2@@SA_NPEBDPEA_N@Z
pdata	ENDS
;	COMDAT pdata
pdata	SEGMENT
$pdata$?ToFloat@XMLUtil@tinyxml2@@SA_NPEBDPEAM@Z DD imagerel $LN5
	DD	imagerel $LN5+30
	DD	imagerel $unwind$?ToFloat@XMLUtil@tinyxml2@@SA_NPEBDPEAM@Z
pdata	ENDS
;	COMDAT pdata
pdata	SEGMENT
$pdata$?ToDouble@XMLUtil@tinyxml2@@SA_NPEBDPEAN@Z DD imagerel $LN5
	DD	imagerel $LN5+30
	DD	imagerel $unwind$?ToDouble@XMLUtil@tinyxml2@@SA_NPEBDPEAN@Z
pdata	ENDS
;	COMDAT pdata
pdata	SEGMENT
$pdata$?ToInt64@XMLUtil@tinyxml2@@SA_NPEBDPEA_J@Z DD imagerel $LN34
	DD	imagerel $LN34+172
	DD	imagerel $unwind$?ToInt64@XMLUtil@tinyxml2@@SA_NPEBDPEA_J@Z
pdata	ENDS
;	COMDAT pdata
pdata	SEGMENT
$pdata$?ToUnsigned64@XMLUtil@tinyxml2@@SA_NPEBDPEA_K@Z DD imagerel $LN28
	DD	imagerel $LN28+174
	DD	imagerel $unwind$?ToUnsigned64@XMLUtil@tinyxml2@@SA_NPEBDPEA_K@Z
pdata	ENDS
;	COMDAT pdata
pdata	SEGMENT
$pdata$?Value@XMLNode@tinyxml2@@QEBAPEBDXZ DD imagerel $LN5
	DD	imagerel $LN5+42
	DD	imagerel $unwind$?Value@XMLNode@tinyxml2@@QEBAPEBDXZ
pdata	ENDS
;	COMDAT pdata
pdata	SEGMENT
$pdata$?SetValue@XMLNode@tinyxml2@@QEAAXPEBD_N@Z DD imagerel $LN17
	DD	imagerel $LN17+60
	DD	imagerel $unwind$?SetValue@XMLNode@tinyxml2@@QEAAXPEBD_N@Z
pdata	ENDS
;	COMDAT pdata
pdata	SEGMENT
$pdata$1$?SetValue@XMLNode@tinyxml2@@QEAAXPEBD_N@Z DD imagerel $LN17+60
	DD	imagerel $LN17+157
	DD	imagerel $chain$1$?SetValue@XMLNode@tinyxml2@@QEAAXPEBD_N@Z
pdata	ENDS
;	COMDAT pdata
pdata	SEGMENT
$pdata$2$?SetValue@XMLNode@tinyxml2@@QEAAXPEBD_N@Z DD imagerel $LN17+157
	DD	imagerel $LN17+181
	DD	imagerel $chain$2$?SetValue@XMLNode@tinyxml2@@QEAAXPEBD_N@Z
pdata	ENDS
;	COMDAT pdata
pdata	SEGMENT
$pdata$?FirstChildElement@XMLNode@tinyxml2@@QEBAPEBVXMLElement@2@PEBD@Z DD imagerel $LN32
	DD	imagerel $LN32+153
	DD	imagerel $unwind$?FirstChildElement@XMLNode@tinyxml2@@QEBAPEBVXMLElement@2@PEBD@Z
pdata	ENDS
;	COMDAT pdata
pdata	SEGMENT
$pdata$?LastChildElement@XMLNode@tinyxml2@@QEBAPEBVXMLElement@2@PEBD@Z DD imagerel $LN32
	DD	imagerel $LN32+153
	DD	imagerel $unwind$?LastChildElement@XMLNode@tinyxml2@@QEBAPEBVXMLElement@2@PEBD@Z
pdata	ENDS
;	COMDAT pdata
pdata	SEGMENT
$pdata$?PreviousSiblingElement@XMLNode@tinyxml2@@QEBAPEBVXMLElement@2@PEBD@Z DD imagerel $LN32
	DD	imagerel $LN32+153
	DD	imagerel $unwind$?PreviousSiblingElement@XMLNode@tinyxml2@@QEBAPEBVXMLElement@2@PEBD@Z
pdata	ENDS
;	COMDAT pdata
pdata	SEGMENT
$pdata$?NextSiblingElement@XMLNode@tinyxml2@@QEBAPEBVXMLElement@2@PEBD@Z DD imagerel $LN32
	DD	imagerel $LN32+153
	DD	imagerel $unwind$?NextSiblingElement@XMLNode@tinyxml2@@QEBAPEBVXMLElement@2@PEBD@Z
pdata	ENDS
;	COMDAT pdata
pdata	SEGMENT
$pdata$?InsertEndChild@XMLNode@tinyxml2@@QEAAPEAV12@PEAV12@@Z DD imagerel $LN7
	DD	imagerel $LN7+107
	DD	imagerel $unwind$?InsertEndChild@XMLNode@tinyxml2@@QEAAPEAV12@PEAV12@@Z
pdata	ENDS
;	COMDAT pdata
pdata	SEGMENT
$pdata$?InsertFirstChild@XMLNode@tinyxml2@@QEAAPEAV12@PEAV12@@Z DD imagerel $LN7
	DD	imagerel $LN7+107
	DD	imagerel $unwind$?InsertFirstChild@XMLNode@tinyxml2@@QEAAPEAV12@PEAV12@@Z
pdata	ENDS
;	COMDAT pdata
pdata	SEGMENT
$pdata$?InsertAfterChild@XMLNode@tinyxml2@@QEAAPEAV12@PEAV12@0@Z DD imagerel $LN10
	DD	imagerel $LN10+145
	DD	imagerel $unwind$?InsertAfterChild@XMLNode@tinyxml2@@QEAAPEAV12@PEAV12@0@Z
pdata	ENDS
;	COMDAT pdata
pdata	SEGMENT
$pdata$?DeleteChildren@XMLNode@tinyxml2@@QEAAXXZ DD imagerel $LN39
	DD	imagerel $LN39+33
	DD	imagerel $unwind$?DeleteChildren@XMLNode@tinyxml2@@QEAAXXZ
pdata	ENDS
;	COMDAT pdata
pdata	SEGMENT
$pdata$0$?DeleteChildren@XMLNode@tinyxml2@@QEAAXXZ DD imagerel $LN39+33
	DD	imagerel $LN39+261
	DD	imagerel $chain$0$?DeleteChildren@XMLNode@tinyxml2@@QEAAXXZ
pdata	ENDS
;	COMDAT pdata
pdata	SEGMENT
$pdata$1$?DeleteChildren@XMLNode@tinyxml2@@QEAAXXZ DD imagerel $LN39+261
	DD	imagerel $LN39+285
	DD	imagerel $chain$1$?DeleteChildren@XMLNode@tinyxml2@@QEAAXXZ
pdata	ENDS
;	COMDAT pdata
pdata	SEGMENT
$pdata$?DeleteChild@XMLNode@tinyxml2@@QEAAXPEAV12@@Z DD imagerel $LN29
	DD	imagerel $LN29+210
	DD	imagerel $unwind$?DeleteChild@XMLNode@tinyxml2@@QEAAXPEAV12@@Z
pdata	ENDS
;	COMDAT pdata
pdata	SEGMENT
$pdata$?DeepClone@XMLNode@tinyxml2@@QEBAPEAV12@PEAVXMLDocument@2@@Z DD imagerel $LN17
	DD	imagerel $LN17+60
	DD	imagerel $unwind$?DeepClone@XMLNode@tinyxml2@@QEBAPEAV12@PEAVXMLDocument@2@@Z
pdata	ENDS
;	COMDAT pdata
pdata	SEGMENT
$pdata$1$?DeepClone@XMLNode@tinyxml2@@QEBAPEAV12@PEAVXMLDocument@2@@Z DD imagerel $LN17+60
	DD	imagerel $LN17+181
	DD	imagerel $chain$1$?DeepClone@XMLNode@tinyxml2@@QEBAPEAV12@PEAVXMLDocument@2@@Z
pdata	ENDS
;	COMDAT pdata
pdata	SEGMENT
$pdata$2$?DeepClone@XMLNode@tinyxml2@@QEBAPEAV12@PEAVXMLDocument@2@@Z DD imagerel $LN17+181
	DD	imagerel $LN17+200
	DD	imagerel $chain$2$?DeepClone@XMLNode@tinyxml2@@QEBAPEAV12@PEAVXMLDocument@2@@Z
pdata	ENDS
;	COMDAT pdata
pdata	SEGMENT
$pdata$??1XMLNode@tinyxml2@@MEAA@XZ DD imagerel $LN17
	DD	imagerel $LN17+159
	DD	imagerel $unwind$??1XMLNode@tinyxml2@@MEAA@XZ
pdata	ENDS
;	COMDAT pdata
pdata	SEGMENT
$pdata$?ParseDeep@XMLNode@tinyxml2@@MEAAPEADPEADPEAVStrPair@2@PEAH@Z DD imagerel $LN201
	DD	imagerel $LN201+100
	DD	imagerel $unwind$?ParseDeep@XMLNode@tinyxml2@@MEAAPEADPEADPEAVStrPair@2@PEAH@Z
pdata	ENDS
;	COMDAT pdata
pdata	SEGMENT
$pdata$2$?ParseDeep@XMLNode@tinyxml2@@MEAAPEADPEADPEAVStrPair@2@PEAH@Z DD imagerel $LN201+100
	DD	imagerel $LN201+1275
	DD	imagerel $chain$2$?ParseDeep@XMLNode@tinyxml2@@MEAAPEADPEADPEAVStrPair@2@PEAH@Z
pdata	ENDS
;	COMDAT pdata
pdata	SEGMENT
$pdata$3$?ParseDeep@XMLNode@tinyxml2@@MEAAPEADPEADPEAVStrPair@2@PEAH@Z DD imagerel $LN201+1275
	DD	imagerel $LN201+1300
	DD	imagerel $chain$3$?ParseDeep@XMLNode@tinyxml2@@MEAAPEADPEADPEAVStrPair@2@PEAH@Z
pdata	ENDS
;	COMDAT pdata
pdata	SEGMENT
$pdata$?DeleteNode@XMLNode@tinyxml2@@CAXPEAV12@@Z DD imagerel $LN22
	DD	imagerel $LN22+20
	DD	imagerel $unwind$?DeleteNode@XMLNode@tinyxml2@@CAXPEAV12@@Z
pdata	ENDS
;	COMDAT pdata
pdata	SEGMENT
$pdata$0$?DeleteNode@XMLNode@tinyxml2@@CAXPEAV12@@Z DD imagerel $LN22+20
	DD	imagerel $LN22+137
	DD	imagerel $chain$0$?DeleteNode@XMLNode@tinyxml2@@CAXPEAV12@@Z
pdata	ENDS
;	COMDAT pdata
pdata	SEGMENT
$pdata$1$?DeleteNode@XMLNode@tinyxml2@@CAXPEAV12@@Z DD imagerel $LN22+137
	DD	imagerel $LN22+138
	DD	imagerel $chain$1$?DeleteNode@XMLNode@tinyxml2@@CAXPEAV12@@Z
pdata	ENDS
;	COMDAT pdata
pdata	SEGMENT
$pdata$?ToElementWithName@XMLNode@tinyxml2@@AEBAPEBVXMLElement@2@PEBD@Z DD imagerel $LN16
	DD	imagerel $LN16+113
	DD	imagerel $unwind$?ToElementWithName@XMLNode@tinyxml2@@AEBAPEBVXMLElement@2@PEBD@Z
pdata	ENDS
;	COMDAT pdata
pdata	SEGMENT
$pdata$??_GXMLNode@tinyxml2@@MEAAPEAXI@Z DD imagerel $LN6
	DD	imagerel $LN6+52
	DD	imagerel $unwind$??_GXMLNode@tinyxml2@@MEAAPEAXI@Z
pdata	ENDS
;	COMDAT pdata
pdata	SEGMENT
$pdata$?ShallowClone@XMLText@tinyxml2@@UEBAPEAVXMLNode@2@PEAVXMLDocument@2@@Z DD imagerel $LN8
	DD	imagerel $LN8+78
	DD	imagerel $unwind$?ShallowClone@XMLText@tinyxml2@@UEBAPEAVXMLNode@2@PEAVXMLDocument@2@@Z
pdata	ENDS
;	COMDAT pdata
pdata	SEGMENT
$pdata$?ShallowEqual@XMLText@tinyxml2@@UEBA_NPEBVXMLNode@2@@Z DD imagerel $LN16
	DD	imagerel $LN16+156
	DD	imagerel $unwind$?ShallowEqual@XMLText@tinyxml2@@UEBA_NPEBVXMLNode@2@@Z
pdata	ENDS
;	COMDAT pdata
pdata	SEGMENT
$pdata$?ParseDeep@XMLText@tinyxml2@@MEAAPEADPEADPEAVStrPair@2@PEAH@Z DD imagerel $LN50
	DD	imagerel $LN50+182
	DD	imagerel $unwind$?ParseDeep@XMLText@tinyxml2@@MEAAPEADPEADPEAVStrPair@2@PEAH@Z
pdata	ENDS
;	COMDAT pdata
pdata	SEGMENT
$pdata$1$?ParseDeep@XMLText@tinyxml2@@MEAAPEADPEADPEAVStrPair@2@PEAH@Z DD imagerel $LN50+182
	DD	imagerel $LN50+337
	DD	imagerel $chain$1$?ParseDeep@XMLText@tinyxml2@@MEAAPEADPEADPEAVStrPair@2@PEAH@Z
pdata	ENDS
;	COMDAT pdata
pdata	SEGMENT
$pdata$3$?ParseDeep@XMLText@tinyxml2@@MEAAPEADPEADPEAVStrPair@2@PEAH@Z DD imagerel $LN50+337
	DD	imagerel $LN50+389
	DD	imagerel $chain$3$?ParseDeep@XMLText@tinyxml2@@MEAAPEADPEADPEAVStrPair@2@PEAH@Z
pdata	ENDS
;	COMDAT pdata
pdata	SEGMENT
$pdata$??_GXMLText@tinyxml2@@MEAAPEAXI@Z DD imagerel $LN9
	DD	imagerel $LN9+62
	DD	imagerel $unwind$??_GXMLText@tinyxml2@@MEAAPEAXI@Z
pdata	ENDS
;	COMDAT pdata
pdata	SEGMENT
$pdata$?ShallowClone@XMLComment@tinyxml2@@UEBAPEAVXMLNode@2@PEAVXMLDocument@2@@Z DD imagerel $LN8
	DD	imagerel $LN8+70
	DD	imagerel $unwind$?ShallowClone@XMLComment@tinyxml2@@UEBAPEAVXMLNode@2@PEAVXMLDocument@2@@Z
pdata	ENDS
;	COMDAT pdata
pdata	SEGMENT
$pdata$?ShallowEqual@XMLComment@tinyxml2@@UEBA_NPEBVXMLNode@2@@Z DD imagerel $LN16
	DD	imagerel $LN16+156
	DD	imagerel $unwind$?ShallowEqual@XMLComment@tinyxml2@@UEBA_NPEBVXMLNode@2@@Z
pdata	ENDS
;	COMDAT pdata
pdata	SEGMENT
$pdata$?ParseDeep@XMLComment@tinyxml2@@MEAAPEADPEADPEAVStrPair@2@PEAH@Z DD imagerel $LN26
	DD	imagerel $LN26+176
	DD	imagerel $unwind$?ParseDeep@XMLComment@tinyxml2@@MEAAPEADPEADPEAVStrPair@2@PEAH@Z
pdata	ENDS
;	COMDAT pdata
pdata	SEGMENT
$pdata$??_GXMLComment@tinyxml2@@MEAAPEAXI@Z DD imagerel $LN9
	DD	imagerel $LN9+62
	DD	imagerel $unwind$??_GXMLComment@tinyxml2@@MEAAPEAXI@Z
pdata	ENDS
;	COMDAT pdata
pdata	SEGMENT
$pdata$?ShallowClone@XMLDeclaration@tinyxml2@@UEBAPEAVXMLNode@2@PEAVXMLDocument@2@@Z DD imagerel $LN8
	DD	imagerel $LN8+70
	DD	imagerel $unwind$?ShallowClone@XMLDeclaration@tinyxml2@@UEBAPEAVXMLNode@2@PEAVXMLDocument@2@@Z
pdata	ENDS
;	COMDAT pdata
pdata	SEGMENT
$pdata$?ShallowEqual@XMLDeclaration@tinyxml2@@UEBA_NPEBVXMLNode@2@@Z DD imagerel $LN16
	DD	imagerel $LN16+156
	DD	imagerel $unwind$?ShallowEqual@XMLDeclaration@tinyxml2@@UEBA_NPEBVXMLNode@2@@Z
pdata	ENDS
;	COMDAT pdata
pdata	SEGMENT
$pdata$?ParseDeep@XMLDeclaration@tinyxml2@@MEAAPEADPEADPEAVStrPair@2@PEAH@Z DD imagerel $LN26
	DD	imagerel $LN26+176
	DD	imagerel $unwind$?ParseDeep@XMLDeclaration@tinyxml2@@MEAAPEADPEADPEAVStrPair@2@PEAH@Z
pdata	ENDS
;	COMDAT pdata
pdata	SEGMENT
$pdata$??_GXMLDeclaration@tinyxml2@@MEAAPEAXI@Z DD imagerel $LN9
	DD	imagerel $LN9+62
	DD	imagerel $unwind$??_GXMLDeclaration@tinyxml2@@MEAAPEAXI@Z
pdata	ENDS
;	COMDAT pdata
pdata	SEGMENT
$pdata$?ShallowClone@XMLUnknown@tinyxml2@@UEBAPEAVXMLNode@2@PEAVXMLDocument@2@@Z DD imagerel $LN8
	DD	imagerel $LN8+70
	DD	imagerel $unwind$?ShallowClone@XMLUnknown@tinyxml2@@UEBAPEAVXMLNode@2@PEAVXMLDocument@2@@Z
pdata	ENDS
;	COMDAT pdata
pdata	SEGMENT
$pdata$?ShallowEqual@XMLUnknown@tinyxml2@@UEBA_NPEBVXMLNode@2@@Z DD imagerel $LN16
	DD	imagerel $LN16+156
	DD	imagerel $unwind$?ShallowEqual@XMLUnknown@tinyxml2@@UEBA_NPEBVXMLNode@2@@Z
pdata	ENDS
;	COMDAT pdata
pdata	SEGMENT
$pdata$?ParseDeep@XMLUnknown@tinyxml2@@MEAAPEADPEADPEAVStrPair@2@PEAH@Z DD imagerel $LN26
	DD	imagerel $LN26+176
	DD	imagerel $unwind$?ParseDeep@XMLUnknown@tinyxml2@@MEAAPEADPEADPEAVStrPair@2@PEAH@Z
pdata	ENDS
;	COMDAT pdata
pdata	SEGMENT
$pdata$??_GXMLUnknown@tinyxml2@@MEAAPEAXI@Z DD imagerel $LN9
	DD	imagerel $LN9+62
	DD	imagerel $unwind$??_GXMLUnknown@tinyxml2@@MEAAPEAXI@Z
pdata	ENDS
;	COMDAT pdata
pdata	SEGMENT
$pdata$?QueryIntValue@XMLAttribute@tinyxml2@@QEBA?AW4XMLError@2@PEAH@Z DD imagerel $LN7
	DD	imagerel $LN7+49
	DD	imagerel $unwind$?QueryIntValue@XMLAttribute@tinyxml2@@QEBA?AW4XMLError@2@PEAH@Z
pdata	ENDS
;	COMDAT pdata
pdata	SEGMENT
$pdata$?QueryUnsignedValue@XMLAttribute@tinyxml2@@QEBA?AW4XMLError@2@PEAI@Z DD imagerel $LN7
	DD	imagerel $LN7+49
	DD	imagerel $unwind$?QueryUnsignedValue@XMLAttribute@tinyxml2@@QEBA?AW4XMLError@2@PEAI@Z
pdata	ENDS
;	COMDAT pdata
pdata	SEGMENT
$pdata$?QueryInt64Value@XMLAttribute@tinyxml2@@QEBA?AW4XMLError@2@PEA_J@Z DD imagerel $LN7
	DD	imagerel $LN7+49
	DD	imagerel $unwind$?QueryInt64Value@XMLAttribute@tinyxml2@@QEBA?AW4XMLError@2@PEA_J@Z
pdata	ENDS
;	COMDAT pdata
pdata	SEGMENT
$pdata$?QueryUnsigned64Value@XMLAttribute@tinyxml2@@QEBA?AW4XMLError@2@PEA_K@Z DD imagerel $LN7
	DD	imagerel $LN7+49
	DD	imagerel $unwind$?QueryUnsigned64Value@XMLAttribute@tinyxml2@@QEBA?AW4XMLError@2@PEA_K@Z
pdata	ENDS
;	COMDAT pdata
pdata	SEGMENT
$pdata$?QueryBoolValue@XMLAttribute@tinyxml2@@QEBA?AW4XMLError@2@PEA_N@Z DD imagerel $LN7
	DD	imagerel $LN7+49
	DD	imagerel $unwind$?QueryBoolValue@XMLAttribute@tinyxml2@@QEBA?AW4XMLError@2@PEA_N@Z
pdata	ENDS
;	COMDAT pdata
pdata	SEGMENT
$pdata$?QueryDoubleValue@XMLAttribute@tinyxml2@@QEBA?AW4XMLError@2@PEAN@Z DD imagerel $LN11
	DD	imagerel $LN11+57
	DD	imagerel $unwind$?QueryDoubleValue@XMLAttribute@tinyxml2@@QEBA?AW4XMLError@2@PEAN@Z
pdata	ENDS
;	COMDAT pdata
pdata	SEGMENT
$pdata$?QueryFloatValue@XMLAttribute@tinyxml2@@QEBA?AW4XMLError@2@PEAM@Z DD imagerel $LN11
	DD	imagerel $LN11+57
	DD	imagerel $unwind$?QueryFloatValue@XMLAttribute@tinyxml2@@QEBA?AW4XMLError@2@PEAM@Z
pdata	ENDS
;	COMDAT pdata
pdata	SEGMENT
$pdata$?SetAttribute@XMLAttribute@tinyxml2@@QEAAXH@Z DD imagerel $LN12
	DD	imagerel $LN12+206
	DD	imagerel $unwind$?SetAttribute@XMLAttribute@tinyxml2@@QEAAXH@Z
pdata	ENDS
;	COMDAT pdata
pdata	SEGMENT
$pdata$?SetAttribute@XMLAttribute@tinyxml2@@QEAAXI@Z DD imagerel $LN12
	DD	imagerel $LN12+206
	DD	imagerel $unwind$?SetAttribute@XMLAttribute@tinyxml2@@QEAAXI@Z
pdata	ENDS
;	COMDAT pdata
pdata	SEGMENT
$pdata$?SetAttribute@XMLAttribute@tinyxml2@@QEAAX_J@Z DD imagerel $LN12
	DD	imagerel $LN12+206
	DD	imagerel $unwind$?SetAttribute@XMLAttribute@tinyxml2@@QEAAX_J@Z
pdata	ENDS
;	COMDAT pdata
pdata	SEGMENT
$pdata$?SetAttribute@XMLAttribute@tinyxml2@@QEAAX_K@Z DD imagerel $LN12
	DD	imagerel $LN12+206
	DD	imagerel $unwind$?SetAttribute@XMLAttribute@tinyxml2@@QEAAX_K@Z
pdata	ENDS
;	COMDAT pdata
pdata	SEGMENT
$pdata$?SetAttribute@XMLAttribute@tinyxml2@@QEAAX_N@Z DD imagerel $LN12
	DD	imagerel $LN12+222
	DD	imagerel $unwind$?SetAttribute@XMLAttribute@tinyxml2@@QEAAX_N@Z
pdata	ENDS
;	COMDAT pdata
pdata	SEGMENT
$pdata$?SetAttribute@XMLAttribute@tinyxml2@@QEAAXN@Z DD imagerel $LN12
	DD	imagerel $LN12+206
	DD	imagerel $unwind$?SetAttribute@XMLAttribute@tinyxml2@@QEAAXN@Z
pdata	ENDS
;	COMDAT pdata
pdata	SEGMENT
$pdata$?SetAttribute@XMLAttribute@tinyxml2@@QEAAXM@Z DD imagerel $LN12
	DD	imagerel $LN12+210
	DD	imagerel $unwind$?SetAttribute@XMLAttribute@tinyxml2@@QEAAXM@Z
pdata	ENDS
;	COMDAT pdata
pdata	SEGMENT
$pdata$??1XMLAttribute@tinyxml2@@EEAA@XZ DD imagerel $LN15
	DD	imagerel $LN15+94
	DD	imagerel $unwind$??1XMLAttribute@tinyxml2@@EEAA@XZ
pdata	ENDS
;	COMDAT pdata
pdata	SEGMENT
$pdata$?ParseDeep@XMLAttribute@tinyxml2@@AEAAPEADPEAD_NPEAH@Z DD imagerel $LN64
	DD	imagerel $LN64+190
	DD	imagerel $unwind$?ParseDeep@XMLAttribute@tinyxml2@@AEAAPEADPEAD_NPEAH@Z
pdata	ENDS
;	COMDAT pdata
pdata	SEGMENT
$pdata$1$?ParseDeep@XMLAttribute@tinyxml2@@AEAAPEADPEAD_NPEAH@Z DD imagerel $LN64+190
	DD	imagerel $LN64+313
	DD	imagerel $chain$1$?ParseDeep@XMLAttribute@tinyxml2@@AEAAPEADPEAD_NPEAH@Z
pdata	ENDS
;	COMDAT pdata
pdata	SEGMENT
$pdata$3$?ParseDeep@XMLAttribute@tinyxml2@@AEAAPEADPEAD_NPEAH@Z DD imagerel $LN64+313
	DD	imagerel $LN64+359
	DD	imagerel $chain$3$?ParseDeep@XMLAttribute@tinyxml2@@AEAAPEADPEAD_NPEAH@Z
pdata	ENDS
;	COMDAT pdata
pdata	SEGMENT
$pdata$4$?ParseDeep@XMLAttribute@tinyxml2@@AEAAPEADPEAD_NPEAH@Z DD imagerel $LN64+359
	DD	imagerel $LN64+373
	DD	imagerel $chain$4$?ParseDeep@XMLAttribute@tinyxml2@@AEAAPEADPEAD_NPEAH@Z
pdata	ENDS
;	COMDAT pdata
pdata	SEGMENT
$pdata$??_GXMLAttribute@tinyxml2@@EEAAPEAXI@Z DD imagerel $LN19
	DD	imagerel $LN19+128
	DD	imagerel $unwind$??_GXMLAttribute@tinyxml2@@EEAAPEAXI@Z
pdata	ENDS
;	COMDAT pdata
pdata	SEGMENT
$pdata$?Name@XMLElement@tinyxml2@@QEBAPEBDXZ DD imagerel $LN7
	DD	imagerel $LN7+42
	DD	imagerel $unwind$?Name@XMLElement@tinyxml2@@QEBAPEBDXZ
pdata	ENDS
;	COMDAT pdata
pdata	SEGMENT
$pdata$?Accept@XMLElement@tinyxml2@@UEBA_NPEAVXMLVisitor@2@@Z DD imagerel $LN16
	DD	imagerel $LN16+36
	DD	imagerel $unwind$?Accept@XMLElement@tinyxml2@@UEBA_NPEAVXMLVisitor@2@@Z
pdata	ENDS
;	COMDAT pdata
pdata	SEGMENT
$pdata$0$?Accept@XMLElement@tinyxml2@@UEBA_NPEAVXMLVisitor@2@@Z DD imagerel $LN16+36
	DD	imagerel $LN16+80
	DD	imagerel $chain$0$?Accept@XMLElement@tinyxml2@@UEBA_NPEAVXMLVisitor@2@@Z
pdata	ENDS
;	COMDAT pdata
pdata	SEGMENT
$pdata$1$?Accept@XMLElement@tinyxml2@@UEBA_NPEAVXMLVisitor@2@@Z DD imagerel $LN16+80
	DD	imagerel $LN16+103
	DD	imagerel $chain$1$?Accept@XMLElement@tinyxml2@@UEBA_NPEAVXMLVisitor@2@@Z
pdata	ENDS
;	COMDAT pdata
pdata	SEGMENT
$pdata$?Attribute@XMLElement@tinyxml2@@QEBAPEBDPEBD0@Z DD imagerel $LN34
	DD	imagerel $LN34+165
	DD	imagerel $unwind$?Attribute@XMLElement@tinyxml2@@QEBAPEBDPEBD0@Z
pdata	ENDS
;	COMDAT pdata
pdata	SEGMENT
$pdata$?IntAttribute@XMLElement@tinyxml2@@QEBAHPEBDH@Z DD imagerel $LN35
	DD	imagerel $LN35+148
	DD	imagerel $unwind$?IntAttribute@XMLElement@tinyxml2@@QEBAHPEBDH@Z
pdata	ENDS
;	COMDAT pdata
pdata	SEGMENT
$pdata$?UnsignedAttribute@XMLElement@tinyxml2@@QEBAIPEBDI@Z DD imagerel $LN61
	DD	imagerel $LN61+226
	DD	imagerel $unwind$?UnsignedAttribute@XMLElement@tinyxml2@@QEBAIPEBDI@Z
pdata	ENDS
;	COMDAT pdata
pdata	SEGMENT
$pdata$?Int64Attribute@XMLElement@tinyxml2@@QEBA_JPEBD_J@Z DD imagerel $LN34
	DD	imagerel $LN34+147
	DD	imagerel $unwind$?Int64Attribute@XMLElement@tinyxml2@@QEBA_JPEBD_J@Z
pdata	ENDS
;	COMDAT pdata
pdata	SEGMENT
$pdata$?Unsigned64Attribute@XMLElement@tinyxml2@@QEBA_KPEBD_K@Z DD imagerel $LN34
	DD	imagerel $LN34+147
	DD	imagerel $unwind$?Unsigned64Attribute@XMLElement@tinyxml2@@QEBA_KPEBD_K@Z
pdata	ENDS
;	COMDAT pdata
pdata	SEGMENT
$pdata$?BoolAttribute@XMLElement@tinyxml2@@QEBA_NPEBD_N@Z DD imagerel $LN34
	DD	imagerel $LN34+149
	DD	imagerel $unwind$?BoolAttribute@XMLElement@tinyxml2@@QEBA_NPEBD_N@Z
pdata	ENDS
;	COMDAT pdata
pdata	SEGMENT
$pdata$?DoubleAttribute@XMLElement@tinyxml2@@QEBANPEBDN@Z DD imagerel $LN38
	DD	imagerel $LN38+159
	DD	imagerel $unwind$?DoubleAttribute@XMLElement@tinyxml2@@QEBANPEBDN@Z
pdata	ENDS
;	COMDAT pdata
pdata	SEGMENT
$pdata$?FloatAttribute@XMLElement@tinyxml2@@QEBAMPEBDM@Z DD imagerel $LN38
	DD	imagerel $LN38+159
	DD	imagerel $unwind$?FloatAttribute@XMLElement@tinyxml2@@QEBAMPEBDM@Z
pdata	ENDS
;	COMDAT pdata
pdata	SEGMENT
$pdata$?QueryIntAttribute@XMLElement@tinyxml2@@QEBA?AW4XMLError@2@PEBDPEAH@Z DD imagerel $LN29
	DD	imagerel $LN29+153
	DD	imagerel $unwind$?QueryIntAttribute@XMLElement@tinyxml2@@QEBA?AW4XMLError@2@PEBDPEAH@Z
pdata	ENDS
;	COMDAT pdata
pdata	SEGMENT
$pdata$?QueryUnsignedAttribute@XMLElement@tinyxml2@@QEBA?AW4XMLError@2@PEBDPEAI@Z DD imagerel $LN29
	DD	imagerel $LN29+153
	DD	imagerel $unwind$?QueryUnsignedAttribute@XMLElement@tinyxml2@@QEBA?AW4XMLError@2@PEBDPEAI@Z
pdata	ENDS
;	COMDAT pdata
pdata	SEGMENT
$pdata$?QueryInt64Attribute@XMLElement@tinyxml2@@QEBA?AW4XMLError@2@PEBDPEA_J@Z DD imagerel $LN29
	DD	imagerel $LN29+153
	DD	imagerel $unwind$?QueryInt64Attribute@XMLElement@tinyxml2@@QEBA?AW4XMLError@2@PEBDPEA_J@Z
pdata	ENDS
;	COMDAT pdata
pdata	SEGMENT
$pdata$?QueryUnsigned64Attribute@XMLElement@tinyxml2@@QEBA?AW4XMLError@2@PEBDPEA_K@Z DD imagerel $LN29
	DD	imagerel $LN29+153
	DD	imagerel $unwind$?QueryUnsigned64Attribute@XMLElement@tinyxml2@@QEBA?AW4XMLError@2@PEBDPEA_K@Z
pdata	ENDS
;	COMDAT pdata
pdata	SEGMENT
$pdata$?QueryBoolAttribute@XMLElement@tinyxml2@@QEBA?AW4XMLError@2@PEBDPEA_N@Z DD imagerel $LN29
	DD	imagerel $LN29+153
	DD	imagerel $unwind$?QueryBoolAttribute@XMLElement@tinyxml2@@QEBA?AW4XMLError@2@PEBDPEA_N@Z
pdata	ENDS
;	COMDAT pdata
pdata	SEGMENT
$pdata$?QueryDoubleAttribute@XMLElement@tinyxml2@@QEBA?AW4XMLError@2@PEBDPEAN@Z DD imagerel $LN32
	DD	imagerel $LN32+161
	DD	imagerel $unwind$?QueryDoubleAttribute@XMLElement@tinyxml2@@QEBA?AW4XMLError@2@PEBDPEAN@Z
pdata	ENDS
;	COMDAT pdata
pdata	SEGMENT
$pdata$?QueryFloatAttribute@XMLElement@tinyxml2@@QEBA?AW4XMLError@2@PEBDPEAM@Z DD imagerel $LN32
	DD	imagerel $LN32+161
	DD	imagerel $unwind$?QueryFloatAttribute@XMLElement@tinyxml2@@QEBA?AW4XMLError@2@PEBDPEAM@Z
pdata	ENDS
;	COMDAT pdata
pdata	SEGMENT
$pdata$?SetAttribute@XMLElement@tinyxml2@@QEAAXPEBD0@Z DD imagerel $LN39
	DD	imagerel $LN39+118
	DD	imagerel $unwind$?SetAttribute@XMLElement@tinyxml2@@QEAAXPEBD0@Z
pdata	ENDS
;	COMDAT pdata
pdata	SEGMENT
$pdata$0$?SetAttribute@XMLElement@tinyxml2@@QEAAXPEBD0@Z DD imagerel $LN39+118
	DD	imagerel $LN39+234
	DD	imagerel $chain$0$?SetAttribute@XMLElement@tinyxml2@@QEAAXPEBD0@Z
pdata	ENDS
;	COMDAT pdata
pdata	SEGMENT
$pdata$1$?SetAttribute@XMLElement@tinyxml2@@QEAAXPEBD0@Z DD imagerel $LN39+234
	DD	imagerel $LN39+273
	DD	imagerel $chain$1$?SetAttribute@XMLElement@tinyxml2@@QEAAXPEBD0@Z
pdata	ENDS
;	COMDAT pdata
pdata	SEGMENT
$pdata$?DeleteAttribute@XMLElement@tinyxml2@@QEAAXPEBD@Z DD imagerel $LN26
	DD	imagerel $LN26+38
	DD	imagerel $unwind$?DeleteAttribute@XMLElement@tinyxml2@@QEAAXPEBD@Z
pdata	ENDS
;	COMDAT pdata
pdata	SEGMENT
$pdata$0$?DeleteAttribute@XMLElement@tinyxml2@@QEAAXPEBD@Z DD imagerel $LN26+38
	DD	imagerel $LN26+153
	DD	imagerel $chain$0$?DeleteAttribute@XMLElement@tinyxml2@@QEAAXPEBD@Z
pdata	ENDS
;	COMDAT pdata
pdata	SEGMENT
$pdata$1$?DeleteAttribute@XMLElement@tinyxml2@@QEAAXPEBD@Z DD imagerel $LN26+153
	DD	imagerel $LN26+175
	DD	imagerel $chain$1$?DeleteAttribute@XMLElement@tinyxml2@@QEAAXPEBD@Z
pdata	ENDS
;	COMDAT pdata
pdata	SEGMENT
$pdata$?FindAttribute@XMLElement@tinyxml2@@QEBAPEBVXMLAttribute@2@PEBD@Z DD imagerel $LN20
	DD	imagerel $LN20+94
	DD	imagerel $unwind$?FindAttribute@XMLElement@tinyxml2@@QEBAPEBVXMLAttribute@2@PEBD@Z
pdata	ENDS
;	COMDAT pdata
pdata	SEGMENT
$pdata$?GetText@XMLElement@tinyxml2@@QEBAPEBDXZ DD imagerel $LN13
	DD	imagerel $LN13+74
	DD	imagerel $unwind$?GetText@XMLElement@tinyxml2@@QEBAPEBDXZ
pdata	ENDS
;	COMDAT pdata
pdata	SEGMENT
$pdata$?SetText@XMLElement@tinyxml2@@QEAAXPEBD@Z DD imagerel $LN13
	DD	imagerel $LN13+174
	DD	imagerel $unwind$?SetText@XMLElement@tinyxml2@@QEAAXPEBD@Z
pdata	ENDS
;	COMDAT pdata
pdata	SEGMENT
$pdata$?SetText@XMLElement@tinyxml2@@QEAAXH@Z DD imagerel $LN6
	DD	imagerel $LN6+93
	DD	imagerel $unwind$?SetText@XMLElement@tinyxml2@@QEAAXH@Z
pdata	ENDS
;	COMDAT pdata
pdata	SEGMENT
$pdata$?SetText@XMLElement@tinyxml2@@QEAAXI@Z DD imagerel $LN6
	DD	imagerel $LN6+93
	DD	imagerel $unwind$?SetText@XMLElement@tinyxml2@@QEAAXI@Z
pdata	ENDS
;	COMDAT pdata
pdata	SEGMENT
$pdata$?SetText@XMLElement@tinyxml2@@QEAAX_J@Z DD imagerel $LN6
	DD	imagerel $LN6+93
	DD	imagerel $unwind$?SetText@XMLElement@tinyxml2@@QEAAX_J@Z
pdata	ENDS
;	COMDAT pdata
pdata	SEGMENT
$pdata$?SetText@XMLElement@tinyxml2@@QEAAX_K@Z DD imagerel $LN6
	DD	imagerel $LN6+93
	DD	imagerel $unwind$?SetText@XMLElement@tinyxml2@@QEAAX_K@Z
pdata	ENDS
;	COMDAT pdata
pdata	SEGMENT
$pdata$?SetText@XMLElement@tinyxml2@@QEAAX_N@Z DD imagerel $LN6
	DD	imagerel $LN6+107
	DD	imagerel $unwind$?SetText@XMLElement@tinyxml2@@QEAAX_N@Z
pdata	ENDS
;	COMDAT pdata
pdata	SEGMENT
$pdata$?SetText@XMLElement@tinyxml2@@QEAAXN@Z DD imagerel $LN6
	DD	imagerel $LN6+98
	DD	imagerel $unwind$?SetText@XMLElement@tinyxml2@@QEAAXN@Z
pdata	ENDS
;	COMDAT pdata
pdata	SEGMENT
$pdata$?SetText@XMLElement@tinyxml2@@QEAAXM@Z DD imagerel $LN6
	DD	imagerel $LN6+102
	DD	imagerel $unwind$?SetText@XMLElement@tinyxml2@@QEAAXM@Z
pdata	ENDS
;	COMDAT pdata
pdata	SEGMENT
$pdata$?QueryIntText@XMLElement@tinyxml2@@QEBA?AW4XMLError@2@PEAH@Z DD imagerel $LN9
	DD	imagerel $LN9+43
	DD	imagerel $unwind$?QueryIntText@XMLElement@tinyxml2@@QEBA?AW4XMLError@2@PEAH@Z
pdata	ENDS
;	COMDAT pdata
pdata	SEGMENT
$pdata$0$?QueryIntText@XMLElement@tinyxml2@@QEBA?AW4XMLError@2@PEAH@Z DD imagerel $LN9+43
	DD	imagerel $LN9+113
	DD	imagerel $chain$0$?QueryIntText@XMLElement@tinyxml2@@QEBA?AW4XMLError@2@PEAH@Z
pdata	ENDS
;	COMDAT pdata
pdata	SEGMENT
$pdata$1$?QueryIntText@XMLElement@tinyxml2@@QEBA?AW4XMLError@2@PEAH@Z DD imagerel $LN9+113
	DD	imagerel $LN9+129
	DD	imagerel $chain$1$?QueryIntText@XMLElement@tinyxml2@@QEBA?AW4XMLError@2@PEAH@Z
pdata	ENDS
;	COMDAT pdata
pdata	SEGMENT
$pdata$?QueryUnsignedText@XMLElement@tinyxml2@@QEBA?AW4XMLError@2@PEAI@Z DD imagerel $LN9
	DD	imagerel $LN9+43
	DD	imagerel $unwind$?QueryUnsignedText@XMLElement@tinyxml2@@QEBA?AW4XMLError@2@PEAI@Z
pdata	ENDS
;	COMDAT pdata
pdata	SEGMENT
$pdata$0$?QueryUnsignedText@XMLElement@tinyxml2@@QEBA?AW4XMLError@2@PEAI@Z DD imagerel $LN9+43
	DD	imagerel $LN9+113
	DD	imagerel $chain$0$?QueryUnsignedText@XMLElement@tinyxml2@@QEBA?AW4XMLError@2@PEAI@Z
pdata	ENDS
;	COMDAT pdata
pdata	SEGMENT
$pdata$1$?QueryUnsignedText@XMLElement@tinyxml2@@QEBA?AW4XMLError@2@PEAI@Z DD imagerel $LN9+113
	DD	imagerel $LN9+129
	DD	imagerel $chain$1$?QueryUnsignedText@XMLElement@tinyxml2@@QEBA?AW4XMLError@2@PEAI@Z
pdata	ENDS
;	COMDAT pdata
pdata	SEGMENT
$pdata$?QueryInt64Text@XMLElement@tinyxml2@@QEBA?AW4XMLError@2@PEA_J@Z DD imagerel $LN9
	DD	imagerel $LN9+43
	DD	imagerel $unwind$?QueryInt64Text@XMLElement@tinyxml2@@QEBA?AW4XMLError@2@PEA_J@Z
pdata	ENDS
;	COMDAT pdata
pdata	SEGMENT
$pdata$0$?QueryInt64Text@XMLElement@tinyxml2@@QEBA?AW4XMLError@2@PEA_J@Z DD imagerel $LN9+43
	DD	imagerel $LN9+113
	DD	imagerel $chain$0$?QueryInt64Text@XMLElement@tinyxml2@@QEBA?AW4XMLError@2@PEA_J@Z
pdata	ENDS
;	COMDAT pdata
pdata	SEGMENT
$pdata$1$?QueryInt64Text@XMLElement@tinyxml2@@QEBA?AW4XMLError@2@PEA_J@Z DD imagerel $LN9+113
	DD	imagerel $LN9+129
	DD	imagerel $chain$1$?QueryInt64Text@XMLElement@tinyxml2@@QEBA?AW4XMLError@2@PEA_J@Z
pdata	ENDS
;	COMDAT pdata
pdata	SEGMENT
$pdata$?QueryUnsigned64Text@XMLElement@tinyxml2@@QEBA?AW4XMLError@2@PEA_K@Z DD imagerel $LN9
	DD	imagerel $LN9+43
	DD	imagerel $unwind$?QueryUnsigned64Text@XMLElement@tinyxml2@@QEBA?AW4XMLError@2@PEA_K@Z
pdata	ENDS
;	COMDAT pdata
pdata	SEGMENT
$pdata$0$?QueryUnsigned64Text@XMLElement@tinyxml2@@QEBA?AW4XMLError@2@PEA_K@Z DD imagerel $LN9+43
	DD	imagerel $LN9+113
	DD	imagerel $chain$0$?QueryUnsigned64Text@XMLElement@tinyxml2@@QEBA?AW4XMLError@2@PEA_K@Z
pdata	ENDS
;	COMDAT pdata
pdata	SEGMENT
$pdata$1$?QueryUnsigned64Text@XMLElement@tinyxml2@@QEBA?AW4XMLError@2@PEA_K@Z DD imagerel $LN9+113
	DD	imagerel $LN9+129
	DD	imagerel $chain$1$?QueryUnsigned64Text@XMLElement@tinyxml2@@QEBA?AW4XMLError@2@PEA_K@Z
pdata	ENDS
;	COMDAT pdata
pdata	SEGMENT
$pdata$?QueryBoolText@XMLElement@tinyxml2@@QEBA?AW4XMLError@2@PEA_N@Z DD imagerel $LN9
	DD	imagerel $LN9+43
	DD	imagerel $unwind$?QueryBoolText@XMLElement@tinyxml2@@QEBA?AW4XMLError@2@PEA_N@Z
pdata	ENDS
;	COMDAT pdata
pdata	SEGMENT
$pdata$0$?QueryBoolText@XMLElement@tinyxml2@@QEBA?AW4XMLError@2@PEA_N@Z DD imagerel $LN9+43
	DD	imagerel $LN9+113
	DD	imagerel $chain$0$?QueryBoolText@XMLElement@tinyxml2@@QEBA?AW4XMLError@2@PEA_N@Z
pdata	ENDS
;	COMDAT pdata
pdata	SEGMENT
$pdata$1$?QueryBoolText@XMLElement@tinyxml2@@QEBA?AW4XMLError@2@PEA_N@Z DD imagerel $LN9+113
	DD	imagerel $LN9+129
	DD	imagerel $chain$1$?QueryBoolText@XMLElement@tinyxml2@@QEBA?AW4XMLError@2@PEA_N@Z
pdata	ENDS
;	COMDAT pdata
pdata	SEGMENT
$pdata$?QueryDoubleText@XMLElement@tinyxml2@@QEBA?AW4XMLError@2@PEAN@Z DD imagerel $LN13
	DD	imagerel $LN13+43
	DD	imagerel $unwind$?QueryDoubleText@XMLElement@tinyxml2@@QEBA?AW4XMLError@2@PEAN@Z
pdata	ENDS
;	COMDAT pdata
pdata	SEGMENT
$pdata$0$?QueryDoubleText@XMLElement@tinyxml2@@QEBA?AW4XMLError@2@PEAN@Z DD imagerel $LN13+43
	DD	imagerel $LN13+121
	DD	imagerel $chain$0$?QueryDoubleText@XMLElement@tinyxml2@@QEBA?AW4XMLError@2@PEAN@Z
pdata	ENDS
;	COMDAT pdata
pdata	SEGMENT
$pdata$1$?QueryDoubleText@XMLElement@tinyxml2@@QEBA?AW4XMLError@2@PEAN@Z DD imagerel $LN13+121
	DD	imagerel $LN13+137
	DD	imagerel $chain$1$?QueryDoubleText@XMLElement@tinyxml2@@QEBA?AW4XMLError@2@PEAN@Z
pdata	ENDS
;	COMDAT pdata
pdata	SEGMENT
$pdata$?QueryFloatText@XMLElement@tinyxml2@@QEBA?AW4XMLError@2@PEAM@Z DD imagerel $LN13
	DD	imagerel $LN13+43
	DD	imagerel $unwind$?QueryFloatText@XMLElement@tinyxml2@@QEBA?AW4XMLError@2@PEAM@Z
pdata	ENDS
;	COMDAT pdata
pdata	SEGMENT
$pdata$0$?QueryFloatText@XMLElement@tinyxml2@@QEBA?AW4XMLError@2@PEAM@Z DD imagerel $LN13+43
	DD	imagerel $LN13+121
	DD	imagerel $chain$0$?QueryFloatText@XMLElement@tinyxml2@@QEBA?AW4XMLError@2@PEAM@Z
pdata	ENDS
;	COMDAT pdata
pdata	SEGMENT
$pdata$1$?QueryFloatText@XMLElement@tinyxml2@@QEBA?AW4XMLError@2@PEAM@Z DD imagerel $LN13+121
	DD	imagerel $LN13+137
	DD	imagerel $chain$1$?QueryFloatText@XMLElement@tinyxml2@@QEBA?AW4XMLError@2@PEAM@Z
pdata	ENDS
;	COMDAT pdata
pdata	SEGMENT
$pdata$?IntText@XMLElement@tinyxml2@@QEBAHH@Z DD imagerel $LN13
	DD	imagerel $LN13+115
	DD	imagerel $unwind$?IntText@XMLElement@tinyxml2@@QEBAHH@Z
pdata	ENDS
;	COMDAT pdata
pdata	SEGMENT
$pdata$?UnsignedText@XMLElement@tinyxml2@@QEBAII@Z DD imagerel $LN13
	DD	imagerel $LN13+115
	DD	imagerel $unwind$?UnsignedText@XMLElement@tinyxml2@@QEBAII@Z
pdata	ENDS
;	COMDAT pdata
pdata	SEGMENT
$pdata$?Int64Text@XMLElement@tinyxml2@@QEBA_J_J@Z DD imagerel $LN13
	DD	imagerel $LN13+115
	DD	imagerel $unwind$?Int64Text@XMLElement@tinyxml2@@QEBA_J_J@Z
pdata	ENDS
;	COMDAT pdata
pdata	SEGMENT
$pdata$?Unsigned64Text@XMLElement@tinyxml2@@QEBA_K_K@Z DD imagerel $LN13
	DD	imagerel $LN13+115
	DD	imagerel $unwind$?Unsigned64Text@XMLElement@tinyxml2@@QEBA_K_K@Z
pdata	ENDS
;	COMDAT pdata
pdata	SEGMENT
$pdata$?BoolText@XMLElement@tinyxml2@@QEBA_N_N@Z DD imagerel $LN13
	DD	imagerel $LN13+140
	DD	imagerel $unwind$?BoolText@XMLElement@tinyxml2@@QEBA_N_N@Z
pdata	ENDS
;	COMDAT pdata
pdata	SEGMENT
$pdata$?DoubleText@XMLElement@tinyxml2@@QEBANN@Z DD imagerel $LN16
	DD	imagerel $LN16+107
	DD	imagerel $unwind$?DoubleText@XMLElement@tinyxml2@@QEBANN@Z
pdata	ENDS
;	COMDAT pdata
pdata	SEGMENT
$pdata$?FloatText@XMLElement@tinyxml2@@QEBAMM@Z DD imagerel $LN16
	DD	imagerel $LN16+107
	DD	imagerel $unwind$?FloatText@XMLElement@tinyxml2@@QEBAMM@Z
pdata	ENDS
;	COMDAT pdata
pdata	SEGMENT
$pdata$?InsertNewChildElement@XMLElement@tinyxml2@@QEAAPEAV12@PEBD@Z DD imagerel $LN4
	DD	imagerel $LN4+59
	DD	imagerel $unwind$?InsertNewChildElement@XMLElement@tinyxml2@@QEAAPEAV12@PEBD@Z
pdata	ENDS
;	COMDAT pdata
pdata	SEGMENT
$pdata$?InsertNewComment@XMLElement@tinyxml2@@QEAAPEAVXMLComment@2@PEBD@Z DD imagerel $LN4
	DD	imagerel $LN4+59
	DD	imagerel $unwind$?InsertNewComment@XMLElement@tinyxml2@@QEAAPEAVXMLComment@2@PEBD@Z
pdata	ENDS
;	COMDAT pdata
pdata	SEGMENT
$pdata$?InsertNewText@XMLElement@tinyxml2@@QEAAPEAVXMLText@2@PEBD@Z DD imagerel $LN4
	DD	imagerel $LN4+59
	DD	imagerel $unwind$?InsertNewText@XMLElement@tinyxml2@@QEAAPEAVXMLText@2@PEBD@Z
pdata	ENDS
;	COMDAT pdata
pdata	SEGMENT
$pdata$?InsertNewDeclaration@XMLElement@tinyxml2@@QEAAPEAVXMLDeclaration@2@PEBD@Z DD imagerel $LN4
	DD	imagerel $LN4+59
	DD	imagerel $unwind$?InsertNewDeclaration@XMLElement@tinyxml2@@QEAAPEAVXMLDeclaration@2@PEBD@Z
pdata	ENDS
;	COMDAT pdata
pdata	SEGMENT
$pdata$?InsertNewUnknown@XMLElement@tinyxml2@@QEAAPEAVXMLUnknown@2@PEBD@Z DD imagerel $LN4
	DD	imagerel $LN4+59
	DD	imagerel $unwind$?InsertNewUnknown@XMLElement@tinyxml2@@QEAAPEAVXMLUnknown@2@PEBD@Z
pdata	ENDS
;	COMDAT pdata
pdata	SEGMENT
$pdata$?ShallowClone@XMLElement@tinyxml2@@UEBAPEAVXMLNode@2@PEAVXMLDocument@2@@Z DD imagerel $LN64
	DD	imagerel $LN64+82
	DD	imagerel $unwind$?ShallowClone@XMLElement@tinyxml2@@UEBAPEAVXMLNode@2@PEAVXMLDocument@2@@Z
pdata	ENDS
;	COMDAT pdata
pdata	SEGMENT
$pdata$3$?ShallowClone@XMLElement@tinyxml2@@UEBAPEAVXMLNode@2@PEAVXMLDocument@2@@Z DD imagerel $LN64+82
	DD	imagerel $LN64+456
	DD	imagerel $chain$3$?ShallowClone@XMLElement@tinyxml2@@UEBAPEAVXMLNode@2@PEAVXMLDocument@2@@Z
pdata	ENDS
;	COMDAT pdata
pdata	SEGMENT
$pdata$4$?ShallowClone@XMLElement@tinyxml2@@UEBAPEAVXMLNode@2@PEAVXMLDocument@2@@Z DD imagerel $LN64+456
	DD	imagerel $LN64+468
	DD	imagerel $chain$4$?ShallowClone@XMLElement@tinyxml2@@UEBAPEAVXMLNode@2@PEAVXMLDocument@2@@Z
pdata	ENDS
;	COMDAT pdata
pdata	SEGMENT
$pdata$?ShallowEqual@XMLElement@tinyxml2@@UEBA_NPEBVXMLNode@2@@Z DD imagerel $LN39
	DD	imagerel $LN39+242
	DD	imagerel $unwind$?ShallowEqual@XMLElement@tinyxml2@@UEBA_NPEBVXMLNode@2@@Z
pdata	ENDS
;	COMDAT pdata
pdata	SEGMENT
$pdata$?ParseDeep@XMLElement@tinyxml2@@MEAAPEADPEADPEAVStrPair@2@PEAH@Z DD imagerel $LN31
	DD	imagerel $LN31+186
	DD	imagerel $unwind$?ParseDeep@XMLElement@tinyxml2@@MEAAPEADPEADPEAVStrPair@2@PEAH@Z
pdata	ENDS
;	COMDAT pdata
pdata	SEGMENT
$pdata$??1XMLElement@tinyxml2@@EEAA@XZ DD imagerel $LN14
	DD	imagerel $LN14+33
	DD	imagerel $unwind$??1XMLElement@tinyxml2@@EEAA@XZ
pdata	ENDS
;	COMDAT pdata
pdata	SEGMENT
$pdata$1$??1XMLElement@tinyxml2@@EEAA@XZ DD imagerel $LN14+33
	DD	imagerel $LN14+100
	DD	imagerel $chain$1$??1XMLElement@tinyxml2@@EEAA@XZ
pdata	ENDS
;	COMDAT pdata
pdata	SEGMENT
$pdata$2$??1XMLElement@tinyxml2@@EEAA@XZ DD imagerel $LN14+100
	DD	imagerel $LN14+119
	DD	imagerel $chain$2$??1XMLElement@tinyxml2@@EEAA@XZ
pdata	ENDS
;	COMDAT pdata
pdata	SEGMENT
$pdata$?FindOrCreateAttribute@XMLElement@tinyxml2@@AEAAPEAVXMLAttribute@2@PEBD@Z DD imagerel $LN38
	DD	imagerel $LN38+109
	DD	imagerel $unwind$?FindOrCreateAttribute@XMLElement@tinyxml2@@AEAAPEAVXMLAttribute@2@PEBD@Z
pdata	ENDS
;	COMDAT pdata
pdata	SEGMENT
$pdata$0$?FindOrCreateAttribute@XMLElement@tinyxml2@@AEAAPEAVXMLAttribute@2@PEBD@Z DD imagerel $LN38+109
	DD	imagerel $LN38+225
	DD	imagerel $chain$0$?FindOrCreateAttribute@XMLElement@tinyxml2@@AEAAPEAVXMLAttribute@2@PEBD@Z
pdata	ENDS
;	COMDAT pdata
pdata	SEGMENT
$pdata$1$?FindOrCreateAttribute@XMLElement@tinyxml2@@AEAAPEAVXMLAttribute@2@PEBD@Z DD imagerel $LN38+225
	DD	imagerel $LN38+247
	DD	imagerel $chain$1$?FindOrCreateAttribute@XMLElement@tinyxml2@@AEAAPEAVXMLAttribute@2@PEBD@Z
pdata	ENDS
;	COMDAT pdata
pdata	SEGMENT
$pdata$?ParseAttributes@XMLElement@tinyxml2@@AEAAPEADPEADPEAH@Z DD imagerel $LN107
	DD	imagerel $LN107+655
	DD	imagerel $unwind$?ParseAttributes@XMLElement@tinyxml2@@AEAAPEADPEADPEAH@Z
pdata	ENDS
;	COMDAT pdata
pdata	SEGMENT
$pdata$?DeleteAttribute@XMLElement@tinyxml2@@CAXPEAVXMLAttribute@2@@Z DD imagerel $LN6
	DD	imagerel $LN6+15
	DD	imagerel $unwind$?DeleteAttribute@XMLElement@tinyxml2@@CAXPEAVXMLAttribute@2@@Z
pdata	ENDS
;	COMDAT pdata
pdata	SEGMENT
$pdata$0$?DeleteAttribute@XMLElement@tinyxml2@@CAXPEAVXMLAttribute@2@@Z DD imagerel $LN6+15
	DD	imagerel $LN6+51
	DD	imagerel $chain$0$?DeleteAttribute@XMLElement@tinyxml2@@CAXPEAVXMLAttribute@2@@Z
pdata	ENDS
;	COMDAT pdata
pdata	SEGMENT
$pdata$1$?DeleteAttribute@XMLElement@tinyxml2@@CAXPEAVXMLAttribute@2@@Z DD imagerel $LN6+51
	DD	imagerel $LN6+52
	DD	imagerel $chain$1$?DeleteAttribute@XMLElement@tinyxml2@@CAXPEAVXMLAttribute@2@@Z
pdata	ENDS
;	COMDAT pdata
pdata	SEGMENT
$pdata$?CreateAttribute@XMLElement@tinyxml2@@AEAAPEAVXMLAttribute@2@XZ DD imagerel $LN11
	DD	imagerel $LN11+113
	DD	imagerel $unwind$?CreateAttribute@XMLElement@tinyxml2@@AEAAPEAVXMLAttribute@2@XZ
pdata	ENDS
;	COMDAT pdata
pdata	SEGMENT
$pdata$??_GXMLElement@tinyxml2@@EEAAPEAXI@Z DD imagerel $LN18
	DD	imagerel $LN18+6
	DD	imagerel $unwind$??_GXMLElement@tinyxml2@@EEAAPEAXI@Z
pdata	ENDS
;	COMDAT pdata
pdata	SEGMENT
$pdata$1$??_GXMLElement@tinyxml2@@EEAAPEAXI@Z DD imagerel $LN18+6
	DD	imagerel $LN18+40
	DD	imagerel $chain$1$??_GXMLElement@tinyxml2@@EEAAPEAXI@Z
pdata	ENDS
;	COMDAT pdata
pdata	SEGMENT
$pdata$3$??_GXMLElement@tinyxml2@@EEAAPEAXI@Z DD imagerel $LN18+40
	DD	imagerel $LN18+116
	DD	imagerel $chain$3$??_GXMLElement@tinyxml2@@EEAAPEAXI@Z
pdata	ENDS
;	COMDAT pdata
pdata	SEGMENT
$pdata$4$??_GXMLElement@tinyxml2@@EEAAPEAXI@Z DD imagerel $LN18+116
	DD	imagerel $LN18+140
	DD	imagerel $chain$4$??_GXMLElement@tinyxml2@@EEAAPEAXI@Z
pdata	ENDS
;	COMDAT pdata
pdata	SEGMENT
$pdata$5$??_GXMLElement@tinyxml2@@EEAAPEAXI@Z DD imagerel $LN18+140
	DD	imagerel $LN18+163
	DD	imagerel $chain$5$??_GXMLElement@tinyxml2@@EEAAPEAXI@Z
pdata	ENDS
;	COMDAT pdata
pdata	SEGMENT
$pdata$??1XMLDocument@tinyxml2@@UEAA@XZ DD imagerel $LN13
	DD	imagerel $LN13+149
	DD	imagerel $unwind$??1XMLDocument@tinyxml2@@UEAA@XZ
pdata	ENDS
;	COMDAT pdata
pdata	SEGMENT
$pdata$?Parse@XMLDocument@tinyxml2@@QEAA?AW4XMLError@2@PEBD_K@Z DD imagerel $LN12
	DD	imagerel $LN12+241
	DD	imagerel $unwind$?Parse@XMLDocument@tinyxml2@@QEAA?AW4XMLError@2@PEBD_K@Z
pdata	ENDS
;	COMDAT pdata
pdata	SEGMENT
$pdata$?LoadFile@XMLDocument@tinyxml2@@QEAA?AW4XMLError@2@PEBD@Z DD imagerel $LN22
	DD	imagerel $LN22+53
	DD	imagerel $unwind$?LoadFile@XMLDocument@tinyxml2@@QEAA?AW4XMLError@2@PEBD@Z
pdata	ENDS
;	COMDAT pdata
pdata	SEGMENT
$pdata$0$?LoadFile@XMLDocument@tinyxml2@@QEAA?AW4XMLError@2@PEBD@Z DD imagerel $LN22+53
	DD	imagerel $LN22+313
	DD	imagerel $chain$0$?LoadFile@XMLDocument@tinyxml2@@QEAA?AW4XMLError@2@PEBD@Z
pdata	ENDS
;	COMDAT pdata
pdata	SEGMENT
$pdata$2$?LoadFile@XMLDocument@tinyxml2@@QEAA?AW4XMLError@2@PEBD@Z DD imagerel $LN22+313
	DD	imagerel $LN22+360
	DD	imagerel $chain$2$?LoadFile@XMLDocument@tinyxml2@@QEAA?AW4XMLError@2@PEBD@Z
pdata	ENDS
;	COMDAT pdata
pdata	SEGMENT
$pdata$4$?LoadFile@XMLDocument@tinyxml2@@QEAA?AW4XMLError@2@PEBD@Z DD imagerel $LN22+360
	DD	imagerel $LN22+406
	DD	imagerel $chain$4$?LoadFile@XMLDocument@tinyxml2@@QEAA?AW4XMLError@2@PEBD@Z
pdata	ENDS
;	COMDAT pdata
pdata	SEGMENT
$pdata$?LoadFile@XMLDocument@tinyxml2@@QEAA?AW4XMLError@2@PEAU_iobuf@@@Z DD imagerel $LN13
	DD	imagerel $LN13+96
	DD	imagerel $unwind$?LoadFile@XMLDocument@tinyxml2@@QEAA?AW4XMLError@2@PEAU_iobuf@@@Z
pdata	ENDS
;	COMDAT pdata
pdata	SEGMENT
$pdata$0$?LoadFile@XMLDocument@tinyxml2@@QEAA?AW4XMLError@2@PEAU_iobuf@@@Z DD imagerel $LN13+96
	DD	imagerel $LN13+183
	DD	imagerel $chain$0$?LoadFile@XMLDocument@tinyxml2@@QEAA?AW4XMLError@2@PEAU_iobuf@@@Z
pdata	ENDS
;	COMDAT pdata
pdata	SEGMENT
$pdata$2$?LoadFile@XMLDocument@tinyxml2@@QEAA?AW4XMLError@2@PEAU_iobuf@@@Z DD imagerel $LN13+183
	DD	imagerel $LN13+226
	DD	imagerel $chain$2$?LoadFile@XMLDocument@tinyxml2@@QEAA?AW4XMLError@2@PEAU_iobuf@@@Z
pdata	ENDS
;	COMDAT pdata
pdata	SEGMENT
$pdata$4$?LoadFile@XMLDocument@tinyxml2@@QEAA?AW4XMLError@2@PEAU_iobuf@@@Z DD imagerel $LN13+226
	DD	imagerel $LN13+304
	DD	imagerel $chain$4$?LoadFile@XMLDocument@tinyxml2@@QEAA?AW4XMLError@2@PEAU_iobuf@@@Z
pdata	ENDS
;	COMDAT pdata
pdata	SEGMENT
$pdata$6$?LoadFile@XMLDocument@tinyxml2@@QEAA?AW4XMLError@2@PEAU_iobuf@@@Z DD imagerel $LN13+304
	DD	imagerel $LN13+339
	DD	imagerel $chain$6$?LoadFile@XMLDocument@tinyxml2@@QEAA?AW4XMLError@2@PEAU_iobuf@@@Z
pdata	ENDS
;	COMDAT pdata
pdata	SEGMENT
$pdata$?SaveFile@XMLDocument@tinyxml2@@QEAA?AW4XMLError@2@PEBD_N@Z DD imagerel $LN42
	DD	imagerel $LN42+67
	DD	imagerel $unwind$?SaveFile@XMLDocument@tinyxml2@@QEAA?AW4XMLError@2@PEBD_N@Z
pdata	ENDS
;	COMDAT pdata
pdata	SEGMENT
$pdata$1$?SaveFile@XMLDocument@tinyxml2@@QEAA?AW4XMLError@2@PEBD_N@Z DD imagerel $LN42+67
	DD	imagerel $LN42+327
	DD	imagerel $chain$1$?SaveFile@XMLDocument@tinyxml2@@QEAA?AW4XMLError@2@PEBD_N@Z
pdata	ENDS
;	COMDAT pdata
pdata	SEGMENT
$pdata$2$?SaveFile@XMLDocument@tinyxml2@@QEAA?AW4XMLError@2@PEBD_N@Z DD imagerel $LN42+327
	DD	imagerel $LN42+357
	DD	imagerel $chain$2$?SaveFile@XMLDocument@tinyxml2@@QEAA?AW4XMLError@2@PEBD_N@Z
pdata	ENDS
;	COMDAT pdata
pdata	SEGMENT
$pdata$?SaveFile@XMLDocument@tinyxml2@@QEAA?AW4XMLError@2@PEAU_iobuf@@_N@Z DD imagerel $LN31
	DD	imagerel $LN31+238
	DD	imagerel $unwind$?SaveFile@XMLDocument@tinyxml2@@QEAA?AW4XMLError@2@PEAU_iobuf@@_N@Z
pdata	ENDS
;	COMDAT pdata
pdata	SEGMENT
$pdata$?Print@XMLDocument@tinyxml2@@QEBAXPEAVXMLPrinter@2@@Z DD imagerel $LN15
	DD	imagerel $LN15+170
	DD	imagerel $unwind$?Print@XMLDocument@tinyxml2@@QEBAXPEAVXMLPrinter@2@@Z
pdata	ENDS
;	COMDAT pdata
pdata	SEGMENT
$pdata$?Accept@XMLDocument@tinyxml2@@UEBA_NPEAVXMLVisitor@2@@Z DD imagerel $LN16
	DD	imagerel $LN16+32
	DD	imagerel $unwind$?Accept@XMLDocument@tinyxml2@@UEBA_NPEAVXMLVisitor@2@@Z
pdata	ENDS
;	COMDAT pdata
pdata	SEGMENT
$pdata$0$?Accept@XMLDocument@tinyxml2@@UEBA_NPEAVXMLVisitor@2@@Z DD imagerel $LN16+32
	DD	imagerel $LN16+78
	DD	imagerel $chain$0$?Accept@XMLDocument@tinyxml2@@UEBA_NPEAVXMLVisitor@2@@Z
pdata	ENDS
;	COMDAT pdata
pdata	SEGMENT
$pdata$1$?Accept@XMLDocument@tinyxml2@@UEBA_NPEAVXMLVisitor@2@@Z DD imagerel $LN16+78
	DD	imagerel $LN16+101
	DD	imagerel $chain$1$?Accept@XMLDocument@tinyxml2@@UEBA_NPEAVXMLVisitor@2@@Z
pdata	ENDS
;	COMDAT pdata
pdata	SEGMENT
$pdata$?NewElement@XMLDocument@tinyxml2@@QEAAPEAVXMLElement@2@PEBD@Z DD imagerel $LN21
	DD	imagerel $LN21+158
	DD	imagerel $unwind$?NewElement@XMLDocument@tinyxml2@@QEAAPEAVXMLElement@2@PEBD@Z
pdata	ENDS
;	COMDAT pdata
pdata	SEGMENT
$pdata$?NewComment@XMLDocument@tinyxml2@@QEAAPEAVXMLComment@2@PEBD@Z DD imagerel $LN19
	DD	imagerel $LN19+158
	DD	imagerel $unwind$?NewComment@XMLDocument@tinyxml2@@QEAAPEAVXMLComment@2@PEBD@Z
pdata	ENDS
;	COMDAT pdata
pdata	SEGMENT
$pdata$?NewText@XMLDocument@tinyxml2@@QEAAPEAVXMLText@2@PEBD@Z DD imagerel $LN19
	DD	imagerel $LN19+158
	DD	imagerel $unwind$?NewText@XMLDocument@tinyxml2@@QEAAPEAVXMLText@2@PEBD@Z
pdata	ENDS
;	COMDAT pdata
pdata	SEGMENT
$pdata$?NewDeclaration@XMLDocument@tinyxml2@@QEAAPEAVXMLDeclaration@2@PEBD@Z DD imagerel $LN19
	DD	imagerel $LN19+174
	DD	imagerel $unwind$?NewDeclaration@XMLDocument@tinyxml2@@QEAAPEAVXMLDeclaration@2@PEBD@Z
pdata	ENDS
;	COMDAT pdata
pdata	SEGMENT
$pdata$?NewUnknown@XMLDocument@tinyxml2@@QEAAPEAVXMLUnknown@2@PEBD@Z DD imagerel $LN19
	DD	imagerel $LN19+158
	DD	imagerel $unwind$?NewUnknown@XMLDocument@tinyxml2@@QEAAPEAVXMLUnknown@2@PEBD@Z
pdata	ENDS
;	COMDAT pdata
pdata	SEGMENT
$pdata$?DeleteNode@XMLDocument@tinyxml2@@QEAAXPEAVXMLNode@2@@Z DD imagerel $LN6
	DD	imagerel $LN6+51
	DD	imagerel $unwind$?DeleteNode@XMLDocument@tinyxml2@@QEAAXPEAVXMLNode@2@@Z
pdata	ENDS
;	COMDAT pdata
pdata	SEGMENT
$pdata$?ClearError@XMLDocument@tinyxml2@@QEAAXXZ DD imagerel $LN7
	DD	imagerel $LN7+73
	DD	imagerel $unwind$?ClearError@XMLDocument@tinyxml2@@QEAAXXZ
pdata	ENDS
;	COMDAT pdata
pdata	SEGMENT
$pdata$?PrintError@XMLDocument@tinyxml2@@QEBAXXZ DD imagerel $LN10
	DD	imagerel $LN10+74
	DD	imagerel $unwind$?PrintError@XMLDocument@tinyxml2@@QEBAXXZ
pdata	ENDS
;	COMDAT pdata
pdata	SEGMENT
$pdata$?Clear@XMLDocument@tinyxml2@@QEAAXXZ DD imagerel $LN39
	DD	imagerel $LN39+32
	DD	imagerel $unwind$?Clear@XMLDocument@tinyxml2@@QEAAXXZ
pdata	ENDS
;	COMDAT pdata
pdata	SEGMENT
$pdata$1$?Clear@XMLDocument@tinyxml2@@QEAAXXZ DD imagerel $LN39+32
	DD	imagerel $LN39+209
	DD	imagerel $chain$1$?Clear@XMLDocument@tinyxml2@@QEAAXXZ
pdata	ENDS
;	COMDAT pdata
pdata	SEGMENT
$pdata$2$?Clear@XMLDocument@tinyxml2@@QEAAXXZ DD imagerel $LN39+209
	DD	imagerel $LN39+292
	DD	imagerel $chain$2$?Clear@XMLDocument@tinyxml2@@QEAAXXZ
pdata	ENDS
;	COMDAT pdata
pdata	SEGMENT
$pdata$?DeepCopy@XMLDocument@tinyxml2@@QEBAXPEAV12@@Z DD imagerel $LN18
	DD	imagerel $LN18+42
	DD	imagerel $unwind$?DeepCopy@XMLDocument@tinyxml2@@QEBAXPEAV12@@Z
pdata	ENDS
;	COMDAT pdata
pdata	SEGMENT
$pdata$1$?DeepCopy@XMLDocument@tinyxml2@@QEBAXPEAV12@@Z DD imagerel $LN18+42
	DD	imagerel $LN18+165
	DD	imagerel $chain$1$?DeepCopy@XMLDocument@tinyxml2@@QEBAXPEAV12@@Z
pdata	ENDS
;	COMDAT pdata
pdata	SEGMENT
$pdata$2$?DeepCopy@XMLDocument@tinyxml2@@QEBAXPEAV12@@Z DD imagerel $LN18+165
	DD	imagerel $LN18+176
	DD	imagerel $chain$2$?DeepCopy@XMLDocument@tinyxml2@@QEBAXPEAV12@@Z
pdata	ENDS
;	COMDAT pdata
pdata	SEGMENT
$pdata$?Identify@XMLDocument@tinyxml2@@QEAAPEADPEADPEAPEAVXMLNode@2@@Z DD imagerel $LN57
	DD	imagerel $LN57+471
	DD	imagerel $unwind$?Identify@XMLDocument@tinyxml2@@QEAAPEADPEADPEAPEAVXMLNode@2@@Z
pdata	ENDS
;	COMDAT pdata
pdata	SEGMENT
$pdata$?Push@?$DynArray@PEAVXMLNode@tinyxml2@@$09@tinyxml2@@QEAAXPEAVXMLNode@2@@Z DD imagerel $LN9
	DD	imagerel $LN9+32
	DD	imagerel $unwind$?Push@?$DynArray@PEAVXMLNode@tinyxml2@@$09@tinyxml2@@QEAAXPEAVXMLNode@2@@Z
pdata	ENDS
;	COMDAT pdata
pdata	SEGMENT
$pdata$0$?Push@?$DynArray@PEAVXMLNode@tinyxml2@@$09@tinyxml2@@QEAAXPEAVXMLNode@2@@Z DD imagerel $LN9+32
	DD	imagerel $LN9+125
	DD	imagerel $chain$0$?Push@?$DynArray@PEAVXMLNode@tinyxml2@@$09@tinyxml2@@QEAAXPEAVXMLNode@2@@Z
pdata	ENDS
;	COMDAT pdata
pdata	SEGMENT
$pdata$1$?Push@?$DynArray@PEAVXMLNode@tinyxml2@@$09@tinyxml2@@QEAAXPEAVXMLNode@2@@Z DD imagerel $LN9+125
	DD	imagerel $LN9+153
	DD	imagerel $chain$1$?Push@?$DynArray@PEAVXMLNode@tinyxml2@@$09@tinyxml2@@QEAAXPEAVXMLNode@2@@Z
pdata	ENDS
;	COMDAT pdata
pdata	SEGMENT
$pdata$?EnsureCapacity@?$DynArray@PEAVXMLNode@tinyxml2@@$09@tinyxml2@@AEAAXH@Z DD imagerel $LN6
	DD	imagerel $LN6+21
	DD	imagerel $unwind$?EnsureCapacity@?$DynArray@PEAVXMLNode@tinyxml2@@$09@tinyxml2@@AEAAXH@Z
pdata	ENDS
;	COMDAT pdata
pdata	SEGMENT
$pdata$1$?EnsureCapacity@?$DynArray@PEAVXMLNode@tinyxml2@@$09@tinyxml2@@AEAAXH@Z DD imagerel $LN6+21
	DD	imagerel $LN6+112
	DD	imagerel $chain$1$?EnsureCapacity@?$DynArray@PEAVXMLNode@tinyxml2@@$09@tinyxml2@@AEAAXH@Z
pdata	ENDS
;	COMDAT pdata
pdata	SEGMENT
$pdata$2$?EnsureCapacity@?$DynArray@PEAVXMLNode@tinyxml2@@$09@tinyxml2@@AEAAXH@Z DD imagerel $LN6+112
	DD	imagerel $LN6+118
	DD	imagerel $chain$2$?EnsureCapacity@?$DynArray@PEAVXMLNode@tinyxml2@@$09@tinyxml2@@AEAAXH@Z
pdata	ENDS
;	COMDAT pdata
pdata	SEGMENT
$pdata$??1?$MemPoolT@$0HI@@tinyxml2@@UEAA@XZ DD imagerel $LN21
	DD	imagerel $LN21+118
	DD	imagerel $unwind$??1?$MemPoolT@$0HI@@tinyxml2@@UEAA@XZ
pdata	ENDS
;	COMDAT pdata
pdata	SEGMENT
$pdata$?Clear@?$MemPoolT@$0HI@@tinyxml2@@QEAAXXZ DD imagerel $LN14
	DD	imagerel $LN14+74
	DD	imagerel $unwind$?Clear@?$MemPoolT@$0HI@@tinyxml2@@QEAAXXZ
pdata	ENDS
;	COMDAT pdata
pdata	SEGMENT
$pdata$?Alloc@?$MemPoolT@$0HI@@tinyxml2@@UEAAPEAXXZ DD imagerel $LN24
	DD	imagerel $LN24+31
	DD	imagerel $unwind$?Alloc@?$MemPoolT@$0HI@@tinyxml2@@UEAAPEAXXZ
pdata	ENDS
;	COMDAT pdata
pdata	SEGMENT
$pdata$0$?Alloc@?$MemPoolT@$0HI@@tinyxml2@@UEAAPEAXXZ DD imagerel $LN24+31
	DD	imagerel $LN24+80
	DD	imagerel $chain$0$?Alloc@?$MemPoolT@$0HI@@tinyxml2@@UEAAPEAXXZ
pdata	ENDS
;	COMDAT pdata
pdata	SEGMENT
$pdata$1$?Alloc@?$MemPoolT@$0HI@@tinyxml2@@UEAAPEAXXZ DD imagerel $LN24+80
	DD	imagerel $LN24+176
	DD	imagerel $chain$1$?Alloc@?$MemPoolT@$0HI@@tinyxml2@@UEAAPEAXXZ
pdata	ENDS
;	COMDAT pdata
pdata	SEGMENT
$pdata$2$?Alloc@?$MemPoolT@$0HI@@tinyxml2@@UEAAPEAXXZ DD imagerel $LN24+176
	DD	imagerel $LN24+208
	DD	imagerel $chain$2$?Alloc@?$MemPoolT@$0HI@@tinyxml2@@UEAAPEAXXZ
pdata	ENDS
;	COMDAT pdata
pdata	SEGMENT
$pdata$3$?Alloc@?$MemPoolT@$0HI@@tinyxml2@@UEAAPEAXXZ DD imagerel $LN24+208
	DD	imagerel $LN24+286
	DD	imagerel $chain$3$?Alloc@?$MemPoolT@$0HI@@tinyxml2@@UEAAPEAXXZ
pdata	ENDS
;	COMDAT pdata
pdata	SEGMENT
$pdata$?Push@?$DynArray@PEAUBlock@?$MemPoolT@$0HI@@tinyxml2@@$09@tinyxml2@@QEAAXPEAUBlock@?$MemPoolT@$0HI@@2@@Z DD imagerel $LN9
	DD	imagerel $LN9+32
	DD	imagerel $unwind$?Push@?$DynArray@PEAUBlock@?$MemPoolT@$0HI@@tinyxml2@@$09@tinyxml2@@QEAAXPEAUBlock@?$MemPoolT@$0HI@@2@@Z
pdata	ENDS
;	COMDAT pdata
pdata	SEGMENT
$pdata$0$?Push@?$DynArray@PEAUBlock@?$MemPoolT@$0HI@@tinyxml2@@$09@tinyxml2@@QEAAXPEAUBlock@?$MemPoolT@$0HI@@2@@Z DD imagerel $LN9+32
	DD	imagerel $LN9+125
	DD	imagerel $chain$0$?Push@?$DynArray@PEAUBlock@?$MemPoolT@$0HI@@tinyxml2@@$09@tinyxml2@@QEAAXPEAUBlock@?$MemPoolT@$0HI@@2@@Z
pdata	ENDS
;	COMDAT pdata
pdata	SEGMENT
$pdata$1$?Push@?$DynArray@PEAUBlock@?$MemPoolT@$0HI@@tinyxml2@@$09@tinyxml2@@QEAAXPEAUBlock@?$MemPoolT@$0HI@@2@@Z DD imagerel $LN9+125
	DD	imagerel $LN9+153
	DD	imagerel $chain$1$?Push@?$DynArray@PEAUBlock@?$MemPoolT@$0HI@@tinyxml2@@$09@tinyxml2@@QEAAXPEAUBlock@?$MemPoolT@$0HI@@2@@Z
pdata	ENDS
;	COMDAT pdata
pdata	SEGMENT
$pdata$?EnsureCapacity@?$DynArray@PEAUBlock@?$MemPoolT@$0HI@@tinyxml2@@$09@tinyxml2@@AEAAXH@Z DD imagerel $LN6
	DD	imagerel $LN6+21
	DD	imagerel $unwind$?EnsureCapacity@?$DynArray@PEAUBlock@?$MemPoolT@$0HI@@tinyxml2@@$09@tinyxml2@@AEAAXH@Z
pdata	ENDS
;	COMDAT pdata
pdata	SEGMENT
$pdata$1$?EnsureCapacity@?$DynArray@PEAUBlock@?$MemPoolT@$0HI@@tinyxml2@@$09@tinyxml2@@AEAAXH@Z DD imagerel $LN6+21
	DD	imagerel $LN6+112
	DD	imagerel $chain$1$?EnsureCapacity@?$DynArray@PEAUBlock@?$MemPoolT@$0HI@@tinyxml2@@$09@tinyxml2@@AEAAXH@Z
pdata	ENDS
;	COMDAT pdata
pdata	SEGMENT
$pdata$2$?EnsureCapacity@?$DynArray@PEAUBlock@?$MemPoolT@$0HI@@tinyxml2@@$09@tinyxml2@@AEAAXH@Z DD imagerel $LN6+112
	DD	imagerel $LN6+118
	DD	imagerel $chain$2$?EnsureCapacity@?$DynArray@PEAUBlock@?$MemPoolT@$0HI@@tinyxml2@@$09@tinyxml2@@AEAAXH@Z
pdata	ENDS
;	COMDAT pdata
pdata	SEGMENT
$pdata$??_G?$MemPoolT@$0HI@@tinyxml2@@UEAAPEAXI@Z DD imagerel $LN6
	DD	imagerel $LN6+52
	DD	imagerel $unwind$??_G?$MemPoolT@$0HI@@tinyxml2@@UEAAPEAXI@Z
pdata	ENDS
;	COMDAT pdata
pdata	SEGMENT
$pdata$??1?$MemPoolT@$0FA@@tinyxml2@@UEAA@XZ DD imagerel $LN21
	DD	imagerel $LN21+118
	DD	imagerel $unwind$??1?$MemPoolT@$0FA@@tinyxml2@@UEAA@XZ
pdata	ENDS
;	COMDAT pdata
pdata	SEGMENT
$pdata$?Clear@?$MemPoolT@$0FA@@tinyxml2@@QEAAXXZ DD imagerel $LN14
	DD	imagerel $LN14+74
	DD	imagerel $unwind$?Clear@?$MemPoolT@$0FA@@tinyxml2@@QEAAXXZ
pdata	ENDS
;	COMDAT pdata
pdata	SEGMENT
$pdata$?Alloc@?$MemPoolT@$0FA@@tinyxml2@@UEAAPEAXXZ DD imagerel $LN24
	DD	imagerel $LN24+31
	DD	imagerel $unwind$?Alloc@?$MemPoolT@$0FA@@tinyxml2@@UEAAPEAXXZ
pdata	ENDS
;	COMDAT pdata
pdata	SEGMENT
$pdata$0$?Alloc@?$MemPoolT@$0FA@@tinyxml2@@UEAAPEAXXZ DD imagerel $LN24+31
	DD	imagerel $LN24+80
	DD	imagerel $chain$0$?Alloc@?$MemPoolT@$0FA@@tinyxml2@@UEAAPEAXXZ
pdata	ENDS
;	COMDAT pdata
pdata	SEGMENT
$pdata$1$?Alloc@?$MemPoolT@$0FA@@tinyxml2@@UEAAPEAXXZ DD imagerel $LN24+80
	DD	imagerel $LN24+176
	DD	imagerel $chain$1$?Alloc@?$MemPoolT@$0FA@@tinyxml2@@UEAAPEAXXZ
pdata	ENDS
;	COMDAT pdata
pdata	SEGMENT
$pdata$2$?Alloc@?$MemPoolT@$0FA@@tinyxml2@@UEAAPEAXXZ DD imagerel $LN24+176
	DD	imagerel $LN24+208
	DD	imagerel $chain$2$?Alloc@?$MemPoolT@$0FA@@tinyxml2@@UEAAPEAXXZ
pdata	ENDS
;	COMDAT pdata
pdata	SEGMENT
$pdata$3$?Alloc@?$MemPoolT@$0FA@@tinyxml2@@UEAAPEAXXZ DD imagerel $LN24+208
	DD	imagerel $LN24+290
	DD	imagerel $chain$3$?Alloc@?$MemPoolT@$0FA@@tinyxml2@@UEAAPEAXXZ
pdata	ENDS
;	COMDAT pdata
pdata	SEGMENT
$pdata$?Push@?$DynArray@PEAUBlock@?$MemPoolT@$0FA@@tinyxml2@@$09@tinyxml2@@QEAAXPEAUBlock@?$MemPoolT@$0FA@@2@@Z DD imagerel $LN9
	DD	imagerel $LN9+32
	DD	imagerel $unwind$?Push@?$DynArray@PEAUBlock@?$MemPoolT@$0FA@@tinyxml2@@$09@tinyxml2@@QEAAXPEAUBlock@?$MemPoolT@$0FA@@2@@Z
pdata	ENDS
;	COMDAT pdata
pdata	SEGMENT
$pdata$0$?Push@?$DynArray@PEAUBlock@?$MemPoolT@$0FA@@tinyxml2@@$09@tinyxml2@@QEAAXPEAUBlock@?$MemPoolT@$0FA@@2@@Z DD imagerel $LN9+32
	DD	imagerel $LN9+125
	DD	imagerel $chain$0$?Push@?$DynArray@PEAUBlock@?$MemPoolT@$0FA@@tinyxml2@@$09@tinyxml2@@QEAAXPEAUBlock@?$MemPoolT@$0FA@@2@@Z
pdata	ENDS
;	COMDAT pdata
pdata	SEGMENT
$pdata$1$?Push@?$DynArray@PEAUBlock@?$MemPoolT@$0FA@@tinyxml2@@$09@tinyxml2@@QEAAXPEAUBlock@?$MemPoolT@$0FA@@2@@Z DD imagerel $LN9+125
	DD	imagerel $LN9+153
	DD	imagerel $chain$1$?Push@?$DynArray@PEAUBlock@?$MemPoolT@$0FA@@tinyxml2@@$09@tinyxml2@@QEAAXPEAUBlock@?$MemPoolT@$0FA@@2@@Z
pdata	ENDS
;	COMDAT pdata
pdata	SEGMENT
$pdata$?EnsureCapacity@?$DynArray@PEAUBlock@?$MemPoolT@$0FA@@tinyxml2@@$09@tinyxml2@@AEAAXH@Z DD imagerel $LN6
	DD	imagerel $LN6+21
	DD	imagerel $unwind$?EnsureCapacity@?$DynArray@PEAUBlock@?$MemPoolT@$0FA@@tinyxml2@@$09@tinyxml2@@AEAAXH@Z
pdata	ENDS
;	COMDAT pdata
pdata	SEGMENT
$pdata$1$?EnsureCapacity@?$DynArray@PEAUBlock@?$MemPoolT@$0FA@@tinyxml2@@$09@tinyxml2@@AEAAXH@Z DD imagerel $LN6+21
	DD	imagerel $LN6+112
	DD	imagerel $chain$1$?EnsureCapacity@?$DynArray@PEAUBlock@?$MemPoolT@$0FA@@tinyxml2@@$09@tinyxml2@@AEAAXH@Z
pdata	ENDS
;	COMDAT pdata
pdata	SEGMENT
$pdata$2$?EnsureCapacity@?$DynArray@PEAUBlock@?$MemPoolT@$0FA@@tinyxml2@@$09@tinyxml2@@AEAAXH@Z DD imagerel $LN6+112
	DD	imagerel $LN6+118
	DD	imagerel $chain$2$?EnsureCapacity@?$DynArray@PEAUBlock@?$MemPoolT@$0FA@@tinyxml2@@$09@tinyxml2@@AEAAXH@Z
pdata	ENDS
;	COMDAT pdata
pdata	SEGMENT
$pdata$??_G?$MemPoolT@$0FA@@tinyxml2@@UEAAPEAXI@Z DD imagerel $LN6
	DD	imagerel $LN6+52
	DD	imagerel $unwind$??_G?$MemPoolT@$0FA@@tinyxml2@@UEAAPEAXI@Z
pdata	ENDS
;	COMDAT pdata
pdata	SEGMENT
$pdata$??1?$MemPoolT@$0HA@@tinyxml2@@UEAA@XZ DD imagerel $LN21
	DD	imagerel $LN21+118
	DD	imagerel $unwind$??1?$MemPoolT@$0HA@@tinyxml2@@UEAA@XZ
pdata	ENDS
;	COMDAT pdata
pdata	SEGMENT
$pdata$?Clear@?$MemPoolT@$0HA@@tinyxml2@@QEAAXXZ DD imagerel $LN14
	DD	imagerel $LN14+74
	DD	imagerel $unwind$?Clear@?$MemPoolT@$0HA@@tinyxml2@@QEAAXXZ
pdata	ENDS
;	COMDAT pdata
pdata	SEGMENT
$pdata$?Alloc@?$MemPoolT@$0HA@@tinyxml2@@UEAAPEAXXZ DD imagerel $LN24
	DD	imagerel $LN24+31
	DD	imagerel $unwind$?Alloc@?$MemPoolT@$0HA@@tinyxml2@@UEAAPEAXXZ
pdata	ENDS
;	COMDAT pdata
pdata	SEGMENT
$pdata$0$?Alloc@?$MemPoolT@$0HA@@tinyxml2@@UEAAPEAXXZ DD imagerel $LN24+31
	DD	imagerel $LN24+80
	DD	imagerel $chain$0$?Alloc@?$MemPoolT@$0HA@@tinyxml2@@UEAAPEAXXZ
pdata	ENDS
;	COMDAT pdata
pdata	SEGMENT
$pdata$1$?Alloc@?$MemPoolT@$0HA@@tinyxml2@@UEAAPEAXXZ DD imagerel $LN24+80
	DD	imagerel $LN24+176
	DD	imagerel $chain$1$?Alloc@?$MemPoolT@$0HA@@tinyxml2@@UEAAPEAXXZ
pdata	ENDS
;	COMDAT pdata
pdata	SEGMENT
$pdata$2$?Alloc@?$MemPoolT@$0HA@@tinyxml2@@UEAAPEAXXZ DD imagerel $LN24+176
	DD	imagerel $LN24+208
	DD	imagerel $chain$2$?Alloc@?$MemPoolT@$0HA@@tinyxml2@@UEAAPEAXXZ
pdata	ENDS
;	COMDAT pdata
pdata	SEGMENT
$pdata$3$?Alloc@?$MemPoolT@$0HA@@tinyxml2@@UEAAPEAXXZ DD imagerel $LN24+208
	DD	imagerel $LN24+286
	DD	imagerel $chain$3$?Alloc@?$MemPoolT@$0HA@@tinyxml2@@UEAAPEAXXZ
pdata	ENDS
;	COMDAT pdata
pdata	SEGMENT
$pdata$?Push@?$DynArray@PEAUBlock@?$MemPoolT@$0HA@@tinyxml2@@$09@tinyxml2@@QEAAXPEAUBlock@?$MemPoolT@$0HA@@2@@Z DD imagerel $LN9
	DD	imagerel $LN9+32
	DD	imagerel $unwind$?Push@?$DynArray@PEAUBlock@?$MemPoolT@$0HA@@tinyxml2@@$09@tinyxml2@@QEAAXPEAUBlock@?$MemPoolT@$0HA@@2@@Z
pdata	ENDS
;	COMDAT pdata
pdata	SEGMENT
$pdata$0$?Push@?$DynArray@PEAUBlock@?$MemPoolT@$0HA@@tinyxml2@@$09@tinyxml2@@QEAAXPEAUBlock@?$MemPoolT@$0HA@@2@@Z DD imagerel $LN9+32
	DD	imagerel $LN9+125
	DD	imagerel $chain$0$?Push@?$DynArray@PEAUBlock@?$MemPoolT@$0HA@@tinyxml2@@$09@tinyxml2@@QEAAXPEAUBlock@?$MemPoolT@$0HA@@2@@Z
pdata	ENDS
;	COMDAT pdata
pdata	SEGMENT
$pdata$1$?Push@?$DynArray@PEAUBlock@?$MemPoolT@$0HA@@tinyxml2@@$09@tinyxml2@@QEAAXPEAUBlock@?$MemPoolT@$0HA@@2@@Z DD imagerel $LN9+125
	DD	imagerel $LN9+153
	DD	imagerel $chain$1$?Push@?$DynArray@PEAUBlock@?$MemPoolT@$0HA@@tinyxml2@@$09@tinyxml2@@QEAAXPEAUBlock@?$MemPoolT@$0HA@@2@@Z
pdata	ENDS
;	COMDAT pdata
pdata	SEGMENT
$pdata$?EnsureCapacity@?$DynArray@PEAUBlock@?$MemPoolT@$0HA@@tinyxml2@@$09@tinyxml2@@AEAAXH@Z DD imagerel $LN6
	DD	imagerel $LN6+21
	DD	imagerel $unwind$?EnsureCapacity@?$DynArray@PEAUBlock@?$MemPoolT@$0HA@@tinyxml2@@$09@tinyxml2@@AEAAXH@Z
pdata	ENDS
;	COMDAT pdata
pdata	SEGMENT
$pdata$1$?EnsureCapacity@?$DynArray@PEAUBlock@?$MemPoolT@$0HA@@tinyxml2@@$09@tinyxml2@@AEAAXH@Z DD imagerel $LN6+21
	DD	imagerel $LN6+112
	DD	imagerel $chain$1$?EnsureCapacity@?$DynArray@PEAUBlock@?$MemPoolT@$0HA@@tinyxml2@@$09@tinyxml2@@AEAAXH@Z
pdata	ENDS
;	COMDAT pdata
pdata	SEGMENT
$pdata$2$?EnsureCapacity@?$DynArray@PEAUBlock@?$MemPoolT@$0HA@@tinyxml2@@$09@tinyxml2@@AEAAXH@Z DD imagerel $LN6+112
	DD	imagerel $LN6+118
	DD	imagerel $chain$2$?EnsureCapacity@?$DynArray@PEAUBlock@?$MemPoolT@$0HA@@tinyxml2@@$09@tinyxml2@@AEAAXH@Z
pdata	ENDS
;	COMDAT pdata
pdata	SEGMENT
$pdata$??_G?$MemPoolT@$0HA@@tinyxml2@@UEAAPEAXI@Z DD imagerel $LN6
	DD	imagerel $LN6+52
	DD	imagerel $unwind$??_G?$MemPoolT@$0HA@@tinyxml2@@UEAAPEAXI@Z
pdata	ENDS
;	COMDAT pdata
pdata	SEGMENT
$pdata$??1?$MemPoolT@$0GI@@tinyxml2@@UEAA@XZ DD imagerel $LN21
	DD	imagerel $LN21+118
	DD	imagerel $unwind$??1?$MemPoolT@$0GI@@tinyxml2@@UEAA@XZ
pdata	ENDS
;	COMDAT pdata
pdata	SEGMENT
$pdata$?Clear@?$MemPoolT@$0GI@@tinyxml2@@QEAAXXZ DD imagerel $LN14
	DD	imagerel $LN14+74
	DD	imagerel $unwind$?Clear@?$MemPoolT@$0GI@@tinyxml2@@QEAAXXZ
pdata	ENDS
;	COMDAT pdata
pdata	SEGMENT
$pdata$?Alloc@?$MemPoolT@$0GI@@tinyxml2@@UEAAPEAXXZ DD imagerel $LN24
	DD	imagerel $LN24+31
	DD	imagerel $unwind$?Alloc@?$MemPoolT@$0GI@@tinyxml2@@UEAAPEAXXZ
pdata	ENDS
;	COMDAT pdata
pdata	SEGMENT
$pdata$0$?Alloc@?$MemPoolT@$0GI@@tinyxml2@@UEAAPEAXXZ DD imagerel $LN24+31
	DD	imagerel $LN24+80
	DD	imagerel $chain$0$?Alloc@?$MemPoolT@$0GI@@tinyxml2@@UEAAPEAXXZ
pdata	ENDS
;	COMDAT pdata
pdata	SEGMENT
$pdata$1$?Alloc@?$MemPoolT@$0GI@@tinyxml2@@UEAAPEAXXZ DD imagerel $LN24+80
	DD	imagerel $LN24+176
	DD	imagerel $chain$1$?Alloc@?$MemPoolT@$0GI@@tinyxml2@@UEAAPEAXXZ
pdata	ENDS
;	COMDAT pdata
pdata	SEGMENT
$pdata$2$?Alloc@?$MemPoolT@$0GI@@tinyxml2@@UEAAPEAXXZ DD imagerel $LN24+176
	DD	imagerel $LN24+208
	DD	imagerel $chain$2$?Alloc@?$MemPoolT@$0GI@@tinyxml2@@UEAAPEAXXZ
pdata	ENDS
;	COMDAT pdata
pdata	SEGMENT
$pdata$3$?Alloc@?$MemPoolT@$0GI@@tinyxml2@@UEAAPEAXXZ DD imagerel $LN24+208
	DD	imagerel $LN24+286
	DD	imagerel $chain$3$?Alloc@?$MemPoolT@$0GI@@tinyxml2@@UEAAPEAXXZ
pdata	ENDS
;	COMDAT pdata
pdata	SEGMENT
$pdata$?Push@?$DynArray@PEAUBlock@?$MemPoolT@$0GI@@tinyxml2@@$09@tinyxml2@@QEAAXPEAUBlock@?$MemPoolT@$0GI@@2@@Z DD imagerel $LN9
	DD	imagerel $LN9+32
	DD	imagerel $unwind$?Push@?$DynArray@PEAUBlock@?$MemPoolT@$0GI@@tinyxml2@@$09@tinyxml2@@QEAAXPEAUBlock@?$MemPoolT@$0GI@@2@@Z
pdata	ENDS
;	COMDAT pdata
pdata	SEGMENT
$pdata$0$?Push@?$DynArray@PEAUBlock@?$MemPoolT@$0GI@@tinyxml2@@$09@tinyxml2@@QEAAXPEAUBlock@?$MemPoolT@$0GI@@2@@Z DD imagerel $LN9+32
	DD	imagerel $LN9+125
	DD	imagerel $chain$0$?Push@?$DynArray@PEAUBlock@?$MemPoolT@$0GI@@tinyxml2@@$09@tinyxml2@@QEAAXPEAUBlock@?$MemPoolT@$0GI@@2@@Z
pdata	ENDS
;	COMDAT pdata
pdata	SEGMENT
$pdata$1$?Push@?$DynArray@PEAUBlock@?$MemPoolT@$0GI@@tinyxml2@@$09@tinyxml2@@QEAAXPEAUBlock@?$MemPoolT@$0GI@@2@@Z DD imagerel $LN9+125
	DD	imagerel $LN9+153
	DD	imagerel $chain$1$?Push@?$DynArray@PEAUBlock@?$MemPoolT@$0GI@@tinyxml2@@$09@tinyxml2@@QEAAXPEAUBlock@?$MemPoolT@$0GI@@2@@Z
pdata	ENDS
;	COMDAT pdata
pdata	SEGMENT
$pdata$?EnsureCapacity@?$DynArray@PEAUBlock@?$MemPoolT@$0GI@@tinyxml2@@$09@tinyxml2@@AEAAXH@Z DD imagerel $LN6
	DD	imagerel $LN6+21
	DD	imagerel $unwind$?EnsureCapacity@?$DynArray@PEAUBlock@?$MemPoolT@$0GI@@tinyxml2@@$09@tinyxml2@@AEAAXH@Z
pdata	ENDS
;	COMDAT pdata
pdata	SEGMENT
$pdata$1$?EnsureCapacity@?$DynArray@PEAUBlock@?$MemPoolT@$0GI@@tinyxml2@@$09@tinyxml2@@AEAAXH@Z DD imagerel $LN6+21
	DD	imagerel $LN6+112
	DD	imagerel $chain$1$?EnsureCapacity@?$DynArray@PEAUBlock@?$MemPoolT@$0GI@@tinyxml2@@$09@tinyxml2@@AEAAXH@Z
pdata	ENDS
;	COMDAT pdata
pdata	SEGMENT
$pdata$2$?EnsureCapacity@?$DynArray@PEAUBlock@?$MemPoolT@$0GI@@tinyxml2@@$09@tinyxml2@@AEAAXH@Z DD imagerel $LN6+112
	DD	imagerel $LN6+118
	DD	imagerel $chain$2$?EnsureCapacity@?$DynArray@PEAUBlock@?$MemPoolT@$0GI@@tinyxml2@@$09@tinyxml2@@AEAAXH@Z
pdata	ENDS
;	COMDAT pdata
pdata	SEGMENT
$pdata$??_G?$MemPoolT@$0GI@@tinyxml2@@UEAAPEAXI@Z DD imagerel $LN6
	DD	imagerel $LN6+52
	DD	imagerel $unwind$??_G?$MemPoolT@$0GI@@tinyxml2@@UEAAPEAXI@Z
pdata	ENDS
;	COMDAT pdata
pdata	SEGMENT
$pdata$?Parse@XMLDocument@tinyxml2@@AEAAXXZ DD imagerel $LN27
	DD	imagerel $LN27+201
	DD	imagerel $unwind$?Parse@XMLDocument@tinyxml2@@AEAAXXZ
pdata	ENDS
;	COMDAT pdata
pdata	SEGMENT
$pdata$?SetError@XMLDocument@tinyxml2@@AEAAXW4XMLError@2@HPEBDZZ DD imagerel $LN18
	DD	imagerel $LN18+358
	DD	imagerel $unwind$?SetError@XMLDocument@tinyxml2@@AEAAXW4XMLError@2@HPEBDZZ
pdata	ENDS
;	COMDAT pdata
pdata	SEGMENT
$pdata$??0DepthTracker@XMLDocument@tinyxml2@@QEAA@PEAV12@@Z DD imagerel $LN8
	DD	imagerel $LN8+66
	DD	imagerel $unwind$??0DepthTracker@XMLDocument@tinyxml2@@QEAA@PEAV12@@Z
pdata	ENDS
;	COMDAT pdata
pdata	SEGMENT
$pdata$??_GXMLDocument@tinyxml2@@UEAAPEAXI@Z DD imagerel $LN17
	DD	imagerel $LN17+183
	DD	imagerel $unwind$??_GXMLDocument@tinyxml2@@UEAAPEAXI@Z
pdata	ENDS
;	COMDAT pdata
pdata	SEGMENT
$pdata$??0XMLPrinter@tinyxml2@@QEAA@PEAU_iobuf@@_NH@Z DD imagerel $LN98
	DD	imagerel $LN98+300
	DD	imagerel $unwind$??0XMLPrinter@tinyxml2@@QEAA@PEAU_iobuf@@_NH@Z
pdata	ENDS
;	COMDAT pdata
pdata	SEGMENT
$pdata$0$??0XMLPrinter@tinyxml2@@QEAA@PEAU_iobuf@@_NH@Z DD imagerel $LN98+300
	DD	imagerel $LN98+386
	DD	imagerel $chain$0$??0XMLPrinter@tinyxml2@@QEAA@PEAU_iobuf@@_NH@Z
pdata	ENDS
;	COMDAT pdata
pdata	SEGMENT
$pdata$1$??0XMLPrinter@tinyxml2@@QEAA@PEAU_iobuf@@_NH@Z DD imagerel $LN98+386
	DD	imagerel $LN98+420
	DD	imagerel $chain$1$??0XMLPrinter@tinyxml2@@QEAA@PEAU_iobuf@@_NH@Z
pdata	ENDS
;	COMDAT pdata
pdata	SEGMENT
$pdata$??1XMLPrinter@tinyxml2@@UEAA@XZ DD imagerel $LN12
	DD	imagerel $LN12+77
	DD	imagerel $unwind$??1XMLPrinter@tinyxml2@@UEAA@XZ
pdata	ENDS
;	COMDAT pdata
pdata	SEGMENT
$pdata$?PushHeader@XMLPrinter@tinyxml2@@QEAAX_N0@Z DD imagerel $LN27
	DD	imagerel $LN27+215
	DD	imagerel $unwind$?PushHeader@XMLPrinter@tinyxml2@@QEAAX_N0@Z
pdata	ENDS
;	COMDAT pdata
pdata	SEGMENT
$pdata$?OpenElement@XMLPrinter@tinyxml2@@QEAAXPEBD_N@Z DD imagerel $LN26
	DD	imagerel $LN26+23
	DD	imagerel $unwind$?OpenElement@XMLPrinter@tinyxml2@@QEAAXPEBD_N@Z
pdata	ENDS
;	COMDAT pdata
pdata	SEGMENT
$pdata$0$?OpenElement@XMLPrinter@tinyxml2@@QEAAXPEBD_N@Z DD imagerel $LN26+23
	DD	imagerel $LN26+116
	DD	imagerel $chain$0$?OpenElement@XMLPrinter@tinyxml2@@QEAAXPEBD_N@Z
pdata	ENDS
;	COMDAT pdata
pdata	SEGMENT
$pdata$1$?OpenElement@XMLPrinter@tinyxml2@@QEAAXPEBD_N@Z DD imagerel $LN26+116
	DD	imagerel $LN26+205
	DD	imagerel $chain$1$?OpenElement@XMLPrinter@tinyxml2@@QEAAXPEBD_N@Z
pdata	ENDS
;	COMDAT pdata
pdata	SEGMENT
$pdata$2$?OpenElement@XMLPrinter@tinyxml2@@QEAAXPEBD_N@Z DD imagerel $LN26+205
	DD	imagerel $LN26+256
	DD	imagerel $chain$2$?OpenElement@XMLPrinter@tinyxml2@@QEAAXPEBD_N@Z
pdata	ENDS
;	COMDAT pdata
pdata	SEGMENT
$pdata$3$?OpenElement@XMLPrinter@tinyxml2@@QEAAXPEBD_N@Z DD imagerel $LN26+256
	DD	imagerel $LN26+303
	DD	imagerel $chain$3$?OpenElement@XMLPrinter@tinyxml2@@QEAAXPEBD_N@Z
pdata	ENDS
;	COMDAT pdata
pdata	SEGMENT
$pdata$?PushAttribute@XMLPrinter@tinyxml2@@QEAAXPEBD0@Z DD imagerel $LN9
	DD	imagerel $LN9+130
	DD	imagerel $unwind$?PushAttribute@XMLPrinter@tinyxml2@@QEAAXPEBD0@Z
pdata	ENDS
;	COMDAT pdata
pdata	SEGMENT
$pdata$?PushAttribute@XMLPrinter@tinyxml2@@QEAAXPEBDH@Z DD imagerel $LN13
	DD	imagerel $LN13+184
	DD	imagerel $unwind$?PushAttribute@XMLPrinter@tinyxml2@@QEAAXPEBDH@Z
pdata	ENDS
;	COMDAT pdata
pdata	SEGMENT
$pdata$?PushAttribute@XMLPrinter@tinyxml2@@QEAAXPEBDI@Z DD imagerel $LN13
	DD	imagerel $LN13+184
	DD	imagerel $unwind$?PushAttribute@XMLPrinter@tinyxml2@@QEAAXPEBDI@Z
pdata	ENDS
;	COMDAT pdata
pdata	SEGMENT
$pdata$?PushAttribute@XMLPrinter@tinyxml2@@QEAAXPEBD_J@Z DD imagerel $LN13
	DD	imagerel $LN13+184
	DD	imagerel $unwind$?PushAttribute@XMLPrinter@tinyxml2@@QEAAXPEBD_J@Z
pdata	ENDS
;	COMDAT pdata
pdata	SEGMENT
$pdata$?PushAttribute@XMLPrinter@tinyxml2@@QEAAXPEBD_K@Z DD imagerel $LN13
	DD	imagerel $LN13+184
	DD	imagerel $unwind$?PushAttribute@XMLPrinter@tinyxml2@@QEAAXPEBD_K@Z
pdata	ENDS
;	COMDAT pdata
pdata	SEGMENT
$pdata$?PushAttribute@XMLPrinter@tinyxml2@@QEAAXPEBD_N@Z DD imagerel $LN13
	DD	imagerel $LN13+199
	DD	imagerel $unwind$?PushAttribute@XMLPrinter@tinyxml2@@QEAAXPEBD_N@Z
pdata	ENDS
;	COMDAT pdata
pdata	SEGMENT
$pdata$?PushAttribute@XMLPrinter@tinyxml2@@QEAAXPEBDN@Z DD imagerel $LN13
	DD	imagerel $LN13+197
	DD	imagerel $unwind$?PushAttribute@XMLPrinter@tinyxml2@@QEAAXPEBDN@Z
pdata	ENDS
;	COMDAT pdata
pdata	SEGMENT
$pdata$?CloseElement@XMLPrinter@tinyxml2@@UEAAX_N@Z DD imagerel $LN23
	DD	imagerel $LN23+249
	DD	imagerel $unwind$?CloseElement@XMLPrinter@tinyxml2@@UEAAX_N@Z
pdata	ENDS
;	COMDAT pdata
pdata	SEGMENT
$pdata$?PushText@XMLPrinter@tinyxml2@@QEAAXPEBD_N@Z DD imagerel $LN16
	DD	imagerel $LN16+179
	DD	imagerel $unwind$?PushText@XMLPrinter@tinyxml2@@QEAAXPEBD_N@Z
pdata	ENDS
;	COMDAT pdata
pdata	SEGMENT
$pdata$?PushText@XMLPrinter@tinyxml2@@QEAAXH@Z DD imagerel $LN19
	DD	imagerel $LN19+131
	DD	imagerel $unwind$?PushText@XMLPrinter@tinyxml2@@QEAAXH@Z
pdata	ENDS
;	COMDAT pdata
pdata	SEGMENT
$pdata$?PushText@XMLPrinter@tinyxml2@@QEAAXI@Z DD imagerel $LN19
	DD	imagerel $LN19+131
	DD	imagerel $unwind$?PushText@XMLPrinter@tinyxml2@@QEAAXI@Z
pdata	ENDS
;	COMDAT pdata
pdata	SEGMENT
$pdata$?PushText@XMLPrinter@tinyxml2@@QEAAX_J@Z DD imagerel $LN19
	DD	imagerel $LN19+131
	DD	imagerel $unwind$?PushText@XMLPrinter@tinyxml2@@QEAAX_J@Z
pdata	ENDS
;	COMDAT pdata
pdata	SEGMENT
$pdata$?PushText@XMLPrinter@tinyxml2@@QEAAX_K@Z DD imagerel $LN19
	DD	imagerel $LN19+131
	DD	imagerel $unwind$?PushText@XMLPrinter@tinyxml2@@QEAAX_K@Z
pdata	ENDS
;	COMDAT pdata
pdata	SEGMENT
$pdata$?PushText@XMLPrinter@tinyxml2@@QEAAX_N@Z DD imagerel $LN19
	DD	imagerel $LN19+145
	DD	imagerel $unwind$?PushText@XMLPrinter@tinyxml2@@QEAAX_N@Z
pdata	ENDS
;	COMDAT pdata
pdata	SEGMENT
$pdata$?PushText@XMLPrinter@tinyxml2@@QEAAXM@Z DD imagerel $LN19
	DD	imagerel $LN19+140
	DD	imagerel $unwind$?PushText@XMLPrinter@tinyxml2@@QEAAXM@Z
pdata	ENDS
;	COMDAT pdata
pdata	SEGMENT
$pdata$?PushText@XMLPrinter@tinyxml2@@QEAAXN@Z DD imagerel $LN19
	DD	imagerel $LN19+136
	DD	imagerel $unwind$?PushText@XMLPrinter@tinyxml2@@QEAAXN@Z
pdata	ENDS
;	COMDAT pdata
pdata	SEGMENT
$pdata$?PushComment@XMLPrinter@tinyxml2@@QEAAXPEBD@Z DD imagerel $LN21
	DD	imagerel $LN21+185
	DD	imagerel $unwind$?PushComment@XMLPrinter@tinyxml2@@QEAAXPEBD@Z
pdata	ENDS
;	COMDAT pdata
pdata	SEGMENT
$pdata$?PushDeclaration@XMLPrinter@tinyxml2@@QEAAXPEBD@Z DD imagerel $LN21
	DD	imagerel $LN21+185
	DD	imagerel $unwind$?PushDeclaration@XMLPrinter@tinyxml2@@QEAAXPEBD@Z
pdata	ENDS
;	COMDAT pdata
pdata	SEGMENT
$pdata$?PushUnknown@XMLPrinter@tinyxml2@@QEAAXPEBD@Z DD imagerel $LN19
	DD	imagerel $LN19+174
	DD	imagerel $unwind$?PushUnknown@XMLPrinter@tinyxml2@@QEAAXPEBD@Z
pdata	ENDS
;	COMDAT pdata
pdata	SEGMENT
$pdata$?VisitEnter@XMLPrinter@tinyxml2@@UEAA_NAEBVXMLDocument@2@@Z DD imagerel $LN30
	DD	imagerel $LN30+57
	DD	imagerel $unwind$?VisitEnter@XMLPrinter@tinyxml2@@UEAA_NAEBVXMLDocument@2@@Z
pdata	ENDS
;	COMDAT pdata
pdata	SEGMENT
$pdata$?VisitEnter@XMLPrinter@tinyxml2@@UEAA_NAEBVXMLElement@2@PEBVXMLAttribute@2@@Z DD imagerel $LN54
	DD	imagerel $LN54+502
	DD	imagerel $unwind$?VisitEnter@XMLPrinter@tinyxml2@@UEAA_NAEBVXMLElement@2@PEBVXMLAttribute@2@@Z
pdata	ENDS
;	COMDAT pdata
pdata	SEGMENT
$pdata$?VisitExit@XMLPrinter@tinyxml2@@UEAA_NAEBVXMLElement@2@@Z DD imagerel $LN4
	DD	imagerel $LN4+41
	DD	imagerel $unwind$?VisitExit@XMLPrinter@tinyxml2@@UEAA_NAEBVXMLElement@2@@Z
pdata	ENDS
;	COMDAT pdata
pdata	SEGMENT
$pdata$?Visit@XMLPrinter@tinyxml2@@UEAA_NAEBVXMLText@2@@Z DD imagerel $LN7
	DD	imagerel $LN7+85
	DD	imagerel $unwind$?Visit@XMLPrinter@tinyxml2@@UEAA_NAEBVXMLText@2@@Z
pdata	ENDS
;	COMDAT pdata
pdata	SEGMENT
$pdata$?Visit@XMLPrinter@tinyxml2@@UEAA_NAEBVXMLComment@2@@Z DD imagerel $LN26
	DD	imagerel $LN26+221
	DD	imagerel $unwind$?Visit@XMLPrinter@tinyxml2@@UEAA_NAEBVXMLComment@2@@Z
pdata	ENDS
;	COMDAT pdata
pdata	SEGMENT
$pdata$?Visit@XMLPrinter@tinyxml2@@UEAA_NAEBVXMLDeclaration@2@@Z DD imagerel $LN7
	DD	imagerel $LN7+67
	DD	imagerel $unwind$?Visit@XMLPrinter@tinyxml2@@UEAA_NAEBVXMLDeclaration@2@@Z
pdata	ENDS
;	COMDAT pdata
pdata	SEGMENT
$pdata$?Visit@XMLPrinter@tinyxml2@@UEAA_NAEBVXMLUnknown@2@@Z DD imagerel $LN24
	DD	imagerel $LN24+210
	DD	imagerel $unwind$?Visit@XMLPrinter@tinyxml2@@UEAA_NAEBVXMLUnknown@2@@Z
pdata	ENDS
;	COMDAT pdata
pdata	SEGMENT
$pdata$?PrintSpace@XMLPrinter@tinyxml2@@MEAAXH@Z DD imagerel $LN14
	DD	imagerel $LN14+9
	DD	imagerel $unwind$?PrintSpace@XMLPrinter@tinyxml2@@MEAAXH@Z
pdata	ENDS
;	COMDAT pdata
pdata	SEGMENT
$pdata$0$?PrintSpace@XMLPrinter@tinyxml2@@MEAAXH@Z DD imagerel $LN14+9
	DD	imagerel $LN14+70
	DD	imagerel $chain$0$?PrintSpace@XMLPrinter@tinyxml2@@MEAAXH@Z
pdata	ENDS
;	COMDAT pdata
pdata	SEGMENT
$pdata$1$?PrintSpace@XMLPrinter@tinyxml2@@MEAAXH@Z DD imagerel $LN14+70
	DD	imagerel $LN14+71
	DD	imagerel $chain$1$?PrintSpace@XMLPrinter@tinyxml2@@MEAAXH@Z
pdata	ENDS
;	COMDAT pdata
pdata	SEGMENT
$pdata$?Print@XMLPrinter@tinyxml2@@MEAAXPEBDZZ DD imagerel $LN14
	DD	imagerel $LN14+175
	DD	imagerel $unwind$?Print@XMLPrinter@tinyxml2@@MEAAXPEBDZZ
pdata	ENDS
;	COMDAT pdata
pdata	SEGMENT
$pdata$?Write@XMLPrinter@tinyxml2@@MEAAXPEBD_K@Z DD imagerel $LN6
	DD	imagerel $LN6+108
	DD	imagerel $unwind$?Write@XMLPrinter@tinyxml2@@MEAAXPEBD_K@Z
pdata	ENDS
;	COMDAT pdata
pdata	SEGMENT
$pdata$?Putc@XMLPrinter@tinyxml2@@MEAAXD@Z DD imagerel $LN6
	DD	imagerel $LN6+61
	DD	imagerel $unwind$?Putc@XMLPrinter@tinyxml2@@MEAAXD@Z
pdata	ENDS
;	COMDAT pdata
pdata	SEGMENT
$pdata$?Push@?$DynArray@PEBD$09@tinyxml2@@QEAAXPEBD@Z DD imagerel $LN9
	DD	imagerel $LN9+32
	DD	imagerel $unwind$?Push@?$DynArray@PEBD$09@tinyxml2@@QEAAXPEBD@Z
pdata	ENDS
;	COMDAT pdata
pdata	SEGMENT
$pdata$0$?Push@?$DynArray@PEBD$09@tinyxml2@@QEAAXPEBD@Z DD imagerel $LN9+32
	DD	imagerel $LN9+125
	DD	imagerel $chain$0$?Push@?$DynArray@PEBD$09@tinyxml2@@QEAAXPEBD@Z
pdata	ENDS
;	COMDAT pdata
pdata	SEGMENT
$pdata$1$?Push@?$DynArray@PEBD$09@tinyxml2@@QEAAXPEBD@Z DD imagerel $LN9+125
	DD	imagerel $LN9+153
	DD	imagerel $chain$1$?Push@?$DynArray@PEBD$09@tinyxml2@@QEAAXPEBD@Z
pdata	ENDS
;	COMDAT pdata
pdata	SEGMENT
$pdata$?EnsureCapacity@?$DynArray@PEBD$09@tinyxml2@@AEAAXH@Z DD imagerel $LN6
	DD	imagerel $LN6+21
	DD	imagerel $unwind$?EnsureCapacity@?$DynArray@PEBD$09@tinyxml2@@AEAAXH@Z
pdata	ENDS
;	COMDAT pdata
pdata	SEGMENT
$pdata$1$?EnsureCapacity@?$DynArray@PEBD$09@tinyxml2@@AEAAXH@Z DD imagerel $LN6+21
	DD	imagerel $LN6+112
	DD	imagerel $chain$1$?EnsureCapacity@?$DynArray@PEBD$09@tinyxml2@@AEAAXH@Z
pdata	ENDS
;	COMDAT pdata
pdata	SEGMENT
$pdata$2$?EnsureCapacity@?$DynArray@PEBD$09@tinyxml2@@AEAAXH@Z DD imagerel $LN6+112
	DD	imagerel $LN6+118
	DD	imagerel $chain$2$?EnsureCapacity@?$DynArray@PEBD$09@tinyxml2@@AEAAXH@Z
pdata	ENDS
;	COMDAT pdata
pdata	SEGMENT
$pdata$?PrepareForNewNode@XMLPrinter@tinyxml2@@AEAAX_N@Z DD imagerel $LN12
	DD	imagerel $LN12+95
	DD	imagerel $unwind$?PrepareForNewNode@XMLPrinter@tinyxml2@@AEAAX_N@Z
pdata	ENDS
;	COMDAT pdata
pdata	SEGMENT
$pdata$?PrintString@XMLPrinter@tinyxml2@@AEAAXPEBD_N@Z DD imagerel $LN38
	DD	imagerel $LN38+31
	DD	imagerel $unwind$?PrintString@XMLPrinter@tinyxml2@@AEAAXPEBD_N@Z
pdata	ENDS
;	COMDAT pdata
pdata	SEGMENT
$pdata$0$?PrintString@XMLPrinter@tinyxml2@@AEAAXPEBD_N@Z DD imagerel $LN38+31
	DD	imagerel $LN38+58
	DD	imagerel $chain$0$?PrintString@XMLPrinter@tinyxml2@@AEAAXPEBD_N@Z
pdata	ENDS
;	COMDAT pdata
pdata	SEGMENT
$pdata$4$?PrintString@XMLPrinter@tinyxml2@@AEAAXPEBD_N@Z DD imagerel $LN38+58
	DD	imagerel $LN38+298
	DD	imagerel $chain$4$?PrintString@XMLPrinter@tinyxml2@@AEAAXPEBD_N@Z
pdata	ENDS
;	COMDAT pdata
pdata	SEGMENT
$pdata$5$?PrintString@XMLPrinter@tinyxml2@@AEAAXPEBD_N@Z DD imagerel $LN38+298
	DD	imagerel $LN38+328
	DD	imagerel $chain$5$?PrintString@XMLPrinter@tinyxml2@@AEAAXPEBD_N@Z
pdata	ENDS
;	COMDAT pdata
pdata	SEGMENT
$pdata$6$?PrintString@XMLPrinter@tinyxml2@@AEAAXPEBD_N@Z DD imagerel $LN38+328
	DD	imagerel $LN38+342
	DD	imagerel $chain$6$?PrintString@XMLPrinter@tinyxml2@@AEAAXPEBD_N@Z
pdata	ENDS
;	COMDAT pdata
pdata	SEGMENT
$pdata$7$?PrintString@XMLPrinter@tinyxml2@@AEAAXPEBD_N@Z DD imagerel $LN38+342
	DD	imagerel $LN38+374
	DD	imagerel $chain$7$?PrintString@XMLPrinter@tinyxml2@@AEAAXPEBD_N@Z
pdata	ENDS
;	COMDAT pdata
pdata	SEGMENT
$pdata$?Push@?$DynArray@D$0BE@@tinyxml2@@QEAAXD@Z DD imagerel $LN9
	DD	imagerel $LN9+32
	DD	imagerel $unwind$?Push@?$DynArray@D$0BE@@tinyxml2@@QEAAXD@Z
pdata	ENDS
;	COMDAT pdata
pdata	SEGMENT
$pdata$0$?Push@?$DynArray@D$0BE@@tinyxml2@@QEAAXD@Z DD imagerel $LN9+32
	DD	imagerel $LN9+99
	DD	imagerel $chain$0$?Push@?$DynArray@D$0BE@@tinyxml2@@QEAAXD@Z
pdata	ENDS
;	COMDAT pdata
pdata	SEGMENT
$pdata$1$?Push@?$DynArray@D$0BE@@tinyxml2@@QEAAXD@Z DD imagerel $LN9+99
	DD	imagerel $LN9+127
	DD	imagerel $chain$1$?Push@?$DynArray@D$0BE@@tinyxml2@@QEAAXD@Z
pdata	ENDS
;	COMDAT pdata
pdata	SEGMENT
$pdata$?PushArr@?$DynArray@D$0BE@@tinyxml2@@QEAAPEADH@Z DD imagerel $LN9
	DD	imagerel $LN9+31
	DD	imagerel $unwind$?PushArr@?$DynArray@D$0BE@@tinyxml2@@QEAAPEADH@Z
pdata	ENDS
;	COMDAT pdata
pdata	SEGMENT
$pdata$0$?PushArr@?$DynArray@D$0BE@@tinyxml2@@QEAAPEADH@Z DD imagerel $LN9+31
	DD	imagerel $LN9+98
	DD	imagerel $chain$0$?PushArr@?$DynArray@D$0BE@@tinyxml2@@QEAAPEADH@Z
pdata	ENDS
;	COMDAT pdata
pdata	SEGMENT
$pdata$1$?PushArr@?$DynArray@D$0BE@@tinyxml2@@QEAAPEADH@Z DD imagerel $LN9+98
	DD	imagerel $LN9+129
	DD	imagerel $chain$1$?PushArr@?$DynArray@D$0BE@@tinyxml2@@QEAAPEADH@Z
pdata	ENDS
;	COMDAT pdata
pdata	SEGMENT
$pdata$?EnsureCapacity@?$DynArray@D$0BE@@tinyxml2@@AEAAXH@Z DD imagerel $LN6
	DD	imagerel $LN6+14
	DD	imagerel $unwind$?EnsureCapacity@?$DynArray@D$0BE@@tinyxml2@@AEAAXH@Z
pdata	ENDS
;	COMDAT pdata
pdata	SEGMENT
$pdata$1$?EnsureCapacity@?$DynArray@D$0BE@@tinyxml2@@AEAAXH@Z DD imagerel $LN6+14
	DD	imagerel $LN6+86
	DD	imagerel $chain$1$?EnsureCapacity@?$DynArray@D$0BE@@tinyxml2@@AEAAXH@Z
pdata	ENDS
;	COMDAT pdata
pdata	SEGMENT
$pdata$2$?EnsureCapacity@?$DynArray@D$0BE@@tinyxml2@@AEAAXH@Z DD imagerel $LN6+86
	DD	imagerel $LN6+92
	DD	imagerel $chain$2$?EnsureCapacity@?$DynArray@D$0BE@@tinyxml2@@AEAAXH@Z
pdata	ENDS
;	COMDAT pdata
pdata	SEGMENT
$pdata$??_GXMLPrinter@tinyxml2@@UEAAPEAXI@Z DD imagerel $LN15
	DD	imagerel $LN15+110
	DD	imagerel $unwind$??_GXMLPrinter@tinyxml2@@UEAAPEAXI@Z
pdata	ENDS
;	COMDAT pdata
pdata	SEGMENT
$pdata$?TIXML_SNPRINTF@@YAHPEAD_KPEBDZZ DD imagerel ?TIXML_SNPRINTF@@YAHPEAD_KPEBDZZ
	DD	imagerel ?TIXML_SNPRINTF@@YAHPEAD_KPEBDZZ+98
	DD	imagerel $unwind$?TIXML_SNPRINTF@@YAHPEAD_KPEBDZZ
pdata	ENDS
;	COMDAT pdata
pdata	SEGMENT
$pdata$?TIXML_VSNPRINTF@@YAHPEAD_KPEBD0@Z DD imagerel ?TIXML_VSNPRINTF@@YAHPEAD_KPEBD0@Z
	DD	imagerel ?TIXML_VSNPRINTF@@YAHPEAD_KPEBD0@Z+107
	DD	imagerel $unwind$?TIXML_VSNPRINTF@@YAHPEAD_KPEBD0@Z
pdata	ENDS
;	COMDAT pdata
pdata	SEGMENT
$pdata$??$CreateUnlinkedNode@VXMLDeclaration@tinyxml2@@$0GI@@XMLDocument@tinyxml2@@AEAAPEAVXMLDeclaration@1@AEAV?$MemPoolT@$0GI@@1@@Z DD imagerel $LN11
	DD	imagerel $LN11+125
	DD	imagerel $unwind$??$CreateUnlinkedNode@VXMLDeclaration@tinyxml2@@$0GI@@XMLDocument@tinyxml2@@AEAAPEAVXMLDeclaration@1@AEAV?$MemPoolT@$0GI@@1@@Z
pdata	ENDS
;	COMDAT pdata
pdata	SEGMENT
$pdata$??$CreateUnlinkedNode@VXMLComment@tinyxml2@@$0GI@@XMLDocument@tinyxml2@@AEAAPEAVXMLComment@1@AEAV?$MemPoolT@$0GI@@1@@Z DD imagerel $LN11
	DD	imagerel $LN11+125
	DD	imagerel $unwind$??$CreateUnlinkedNode@VXMLComment@tinyxml2@@$0GI@@XMLDocument@tinyxml2@@AEAAPEAVXMLComment@1@AEAV?$MemPoolT@$0GI@@1@@Z
pdata	ENDS
;	COMDAT pdata
pdata	SEGMENT
$pdata$??$CreateUnlinkedNode@VXMLText@tinyxml2@@$0HA@@XMLDocument@tinyxml2@@AEAAPEAVXMLText@1@AEAV?$MemPoolT@$0HA@@1@@Z DD imagerel $LN11
	DD	imagerel $LN11+129
	DD	imagerel $unwind$??$CreateUnlinkedNode@VXMLText@tinyxml2@@$0HA@@XMLDocument@tinyxml2@@AEAAPEAVXMLText@1@AEAV?$MemPoolT@$0HA@@1@@Z
pdata	ENDS
;	COMDAT pdata
pdata	SEGMENT
$pdata$??$CreateUnlinkedNode@VXMLUnknown@tinyxml2@@$0GI@@XMLDocument@tinyxml2@@AEAAPEAVXMLUnknown@1@AEAV?$MemPoolT@$0GI@@1@@Z DD imagerel $LN11
	DD	imagerel $LN11+125
	DD	imagerel $unwind$??$CreateUnlinkedNode@VXMLUnknown@tinyxml2@@$0GI@@XMLDocument@tinyxml2@@AEAAPEAVXMLUnknown@1@AEAV?$MemPoolT@$0GI@@1@@Z
pdata	ENDS
;	COMDAT pdata
pdata	SEGMENT
$pdata$??$CreateUnlinkedNode@VXMLElement@tinyxml2@@$0HI@@XMLDocument@tinyxml2@@AEAAPEAVXMLElement@1@AEAV?$MemPoolT@$0HI@@1@@Z DD imagerel $LN11
	DD	imagerel $LN11+132
	DD	imagerel $unwind$??$CreateUnlinkedNode@VXMLElement@tinyxml2@@$0HI@@XMLDocument@tinyxml2@@AEAAPEAVXMLElement@1@AEAV?$MemPoolT@$0HI@@1@@Z
pdata	ENDS
;	COMDAT pdata
pdata	SEGMENT
$pdata$?callfopen@tinyxml2@@YAPEAU_iobuf@@PEBD0@Z DD imagerel ?callfopen@tinyxml2@@YAPEAU_iobuf@@PEBD0@Z
	DD	imagerel ?callfopen@tinyxml2@@YAPEAU_iobuf@@PEBD0@Z+50
	DD	imagerel $unwind$?callfopen@tinyxml2@@YAPEAU_iobuf@@PEBD0@Z
pdata	ENDS
;	COMDAT ??_R1A@?0A@EA@?$MemPoolT@$0GI@@tinyxml2@@8
rdata$r	SEGMENT
??_R1A@?0A@EA@?$MemPoolT@$0GI@@tinyxml2@@8 DD imagerel ??_R0?AV?$MemPoolT@$0GI@@tinyxml2@@@8 ; tinyxml2::MemPoolT<104>::`RTTI Base Class Descriptor at (0,-1,0,64)'
	DD	01H
	DD	00H
	DD	0ffffffffH
	DD	00H
	DD	040H
	DD	imagerel ??_R3?$MemPoolT@$0GI@@tinyxml2@@8
rdata$r	ENDS
;	COMDAT ??_R2?$MemPoolT@$0GI@@tinyxml2@@8
rdata$r	SEGMENT
??_R2?$MemPoolT@$0GI@@tinyxml2@@8 DD imagerel ??_R1A@?0A@EA@?$MemPoolT@$0GI@@tinyxml2@@8 ; tinyxml2::MemPoolT<104>::`RTTI Base Class Array'
	DD	imagerel ??_R1A@?0A@EA@MemPool@tinyxml2@@8
	ORG $+3
rdata$r	ENDS
;	COMDAT ??_R3?$MemPoolT@$0GI@@tinyxml2@@8
rdata$r	SEGMENT
??_R3?$MemPoolT@$0GI@@tinyxml2@@8 DD 00H		; tinyxml2::MemPoolT<104>::`RTTI Class Hierarchy Descriptor'
	DD	00H
	DD	02H
	DD	imagerel ??_R2?$MemPoolT@$0GI@@tinyxml2@@8
rdata$r	ENDS
;	COMDAT ??_R0?AV?$MemPoolT@$0GI@@tinyxml2@@@8
data$rs	SEGMENT
??_R0?AV?$MemPoolT@$0GI@@tinyxml2@@@8 DQ FLAT:??_7type_info@@6B@ ; tinyxml2::MemPoolT<104> `RTTI Type Descriptor'
	DQ	0000000000000000H
	DB	'.?AV?$MemPoolT@$0GI@@tinyxml2@@', 00H
data$rs	ENDS
;	COMDAT ??_R4?$MemPoolT@$0GI@@tinyxml2@@6B@
rdata$r	SEGMENT
??_R4?$MemPoolT@$0GI@@tinyxml2@@6B@ DD 01H		; tinyxml2::MemPoolT<104>::`RTTI Complete Object Locator'
	DD	00H
	DD	00H
	DD	imagerel ??_R0?AV?$MemPoolT@$0GI@@tinyxml2@@@8
	DD	imagerel ??_R3?$MemPoolT@$0GI@@tinyxml2@@8
	DD	imagerel ??_R4?$MemPoolT@$0GI@@tinyxml2@@6B@
rdata$r	ENDS
;	COMDAT ??_R1A@?0A@EA@?$MemPoolT@$0HA@@tinyxml2@@8
rdata$r	SEGMENT
??_R1A@?0A@EA@?$MemPoolT@$0HA@@tinyxml2@@8 DD imagerel ??_R0?AV?$MemPoolT@$0HA@@tinyxml2@@@8 ; tinyxml2::MemPoolT<112>::`RTTI Base Class Descriptor at (0,-1,0,64)'
	DD	01H
	DD	00H
	DD	0ffffffffH
	DD	00H
	DD	040H
	DD	imagerel ??_R3?$MemPoolT@$0HA@@tinyxml2@@8
rdata$r	ENDS
;	COMDAT ??_R2?$MemPoolT@$0HA@@tinyxml2@@8
rdata$r	SEGMENT
??_R2?$MemPoolT@$0HA@@tinyxml2@@8 DD imagerel ??_R1A@?0A@EA@?$MemPoolT@$0HA@@tinyxml2@@8 ; tinyxml2::MemPoolT<112>::`RTTI Base Class Array'
	DD	imagerel ??_R1A@?0A@EA@MemPool@tinyxml2@@8
	ORG $+3
rdata$r	ENDS
;	COMDAT ??_R3?$MemPoolT@$0HA@@tinyxml2@@8
rdata$r	SEGMENT
??_R3?$MemPoolT@$0HA@@tinyxml2@@8 DD 00H		; tinyxml2::MemPoolT<112>::`RTTI Class Hierarchy Descriptor'
	DD	00H
	DD	02H
	DD	imagerel ??_R2?$MemPoolT@$0HA@@tinyxml2@@8
rdata$r	ENDS
;	COMDAT ??_R0?AV?$MemPoolT@$0HA@@tinyxml2@@@8
data$rs	SEGMENT
??_R0?AV?$MemPoolT@$0HA@@tinyxml2@@@8 DQ FLAT:??_7type_info@@6B@ ; tinyxml2::MemPoolT<112> `RTTI Type Descriptor'
	DQ	0000000000000000H
	DB	'.?AV?$MemPoolT@$0HA@@tinyxml2@@', 00H
data$rs	ENDS
;	COMDAT ??_R4?$MemPoolT@$0HA@@tinyxml2@@6B@
rdata$r	SEGMENT
??_R4?$MemPoolT@$0HA@@tinyxml2@@6B@ DD 01H		; tinyxml2::MemPoolT<112>::`RTTI Complete Object Locator'
	DD	00H
	DD	00H
	DD	imagerel ??_R0?AV?$MemPoolT@$0HA@@tinyxml2@@@8
	DD	imagerel ??_R3?$MemPoolT@$0HA@@tinyxml2@@8
	DD	imagerel ??_R4?$MemPoolT@$0HA@@tinyxml2@@6B@
rdata$r	ENDS
;	COMDAT ??_R1A@?0A@EA@?$MemPoolT@$0FA@@tinyxml2@@8
rdata$r	SEGMENT
??_R1A@?0A@EA@?$MemPoolT@$0FA@@tinyxml2@@8 DD imagerel ??_R0?AV?$MemPoolT@$0FA@@tinyxml2@@@8 ; tinyxml2::MemPoolT<80>::`RTTI Base Class Descriptor at (0,-1,0,64)'
	DD	01H
	DD	00H
	DD	0ffffffffH
	DD	00H
	DD	040H
	DD	imagerel ??_R3?$MemPoolT@$0FA@@tinyxml2@@8
rdata$r	ENDS
;	COMDAT ??_R2?$MemPoolT@$0FA@@tinyxml2@@8
rdata$r	SEGMENT
??_R2?$MemPoolT@$0FA@@tinyxml2@@8 DD imagerel ??_R1A@?0A@EA@?$MemPoolT@$0FA@@tinyxml2@@8 ; tinyxml2::MemPoolT<80>::`RTTI Base Class Array'
	DD	imagerel ??_R1A@?0A@EA@MemPool@tinyxml2@@8
	ORG $+3
rdata$r	ENDS
;	COMDAT ??_R3?$MemPoolT@$0FA@@tinyxml2@@8
rdata$r	SEGMENT
??_R3?$MemPoolT@$0FA@@tinyxml2@@8 DD 00H		; tinyxml2::MemPoolT<80>::`RTTI Class Hierarchy Descriptor'
	DD	00H
	DD	02H
	DD	imagerel ??_R2?$MemPoolT@$0FA@@tinyxml2@@8
rdata$r	ENDS
;	COMDAT ??_R0?AV?$MemPoolT@$0FA@@tinyxml2@@@8
data$rs	SEGMENT
??_R0?AV?$MemPoolT@$0FA@@tinyxml2@@@8 DQ FLAT:??_7type_info@@6B@ ; tinyxml2::MemPoolT<80> `RTTI Type Descriptor'
	DQ	0000000000000000H
	DB	'.?AV?$MemPoolT@$0FA@@tinyxml2@@', 00H
data$rs	ENDS
;	COMDAT ??_R4?$MemPoolT@$0FA@@tinyxml2@@6B@
rdata$r	SEGMENT
??_R4?$MemPoolT@$0FA@@tinyxml2@@6B@ DD 01H		; tinyxml2::MemPoolT<80>::`RTTI Complete Object Locator'
	DD	00H
	DD	00H
	DD	imagerel ??_R0?AV?$MemPoolT@$0FA@@tinyxml2@@@8
	DD	imagerel ??_R3?$MemPoolT@$0FA@@tinyxml2@@8
	DD	imagerel ??_R4?$MemPoolT@$0FA@@tinyxml2@@6B@
rdata$r	ENDS
;	COMDAT ??_R1A@?0A@EA@?$MemPoolT@$0HI@@tinyxml2@@8
rdata$r	SEGMENT
??_R1A@?0A@EA@?$MemPoolT@$0HI@@tinyxml2@@8 DD imagerel ??_R0?AV?$MemPoolT@$0HI@@tinyxml2@@@8 ; tinyxml2::MemPoolT<120>::`RTTI Base Class Descriptor at (0,-1,0,64)'
	DD	01H
	DD	00H
	DD	0ffffffffH
	DD	00H
	DD	040H
	DD	imagerel ??_R3?$MemPoolT@$0HI@@tinyxml2@@8
rdata$r	ENDS
;	COMDAT ??_R2?$MemPoolT@$0HI@@tinyxml2@@8
rdata$r	SEGMENT
??_R2?$MemPoolT@$0HI@@tinyxml2@@8 DD imagerel ??_R1A@?0A@EA@?$MemPoolT@$0HI@@tinyxml2@@8 ; tinyxml2::MemPoolT<120>::`RTTI Base Class Array'
	DD	imagerel ??_R1A@?0A@EA@MemPool@tinyxml2@@8
	ORG $+3
rdata$r	ENDS
;	COMDAT ??_R3?$MemPoolT@$0HI@@tinyxml2@@8
rdata$r	SEGMENT
??_R3?$MemPoolT@$0HI@@tinyxml2@@8 DD 00H		; tinyxml2::MemPoolT<120>::`RTTI Class Hierarchy Descriptor'
	DD	00H
	DD	02H
	DD	imagerel ??_R2?$MemPoolT@$0HI@@tinyxml2@@8
rdata$r	ENDS
;	COMDAT ??_R0?AV?$MemPoolT@$0HI@@tinyxml2@@@8
data$rs	SEGMENT
??_R0?AV?$MemPoolT@$0HI@@tinyxml2@@@8 DQ FLAT:??_7type_info@@6B@ ; tinyxml2::MemPoolT<120> `RTTI Type Descriptor'
	DQ	0000000000000000H
	DB	'.?AV?$MemPoolT@$0HI@@tinyxml2@@', 00H
data$rs	ENDS
;	COMDAT ??_R4?$MemPoolT@$0HI@@tinyxml2@@6B@
rdata$r	SEGMENT
??_R4?$MemPoolT@$0HI@@tinyxml2@@6B@ DD 01H		; tinyxml2::MemPoolT<120>::`RTTI Complete Object Locator'
	DD	00H
	DD	00H
	DD	imagerel ??_R0?AV?$MemPoolT@$0HI@@tinyxml2@@@8
	DD	imagerel ??_R3?$MemPoolT@$0HI@@tinyxml2@@8
	DD	imagerel ??_R4?$MemPoolT@$0HI@@tinyxml2@@6B@
rdata$r	ENDS
;	COMDAT ??_R4XMLNode@tinyxml2@@6B@
rdata$r	SEGMENT
??_R4XMLNode@tinyxml2@@6B@ DD 01H			; tinyxml2::XMLNode::`RTTI Complete Object Locator'
	DD	00H
	DD	00H
	DD	imagerel ??_R0?AVXMLNode@tinyxml2@@@8
	DD	imagerel ??_R3XMLNode@tinyxml2@@8
	DD	imagerel ??_R4XMLNode@tinyxml2@@6B@
rdata$r	ENDS
;	COMDAT ??_R4XMLVisitor@tinyxml2@@6B@
rdata$r	SEGMENT
??_R4XMLVisitor@tinyxml2@@6B@ DD 01H			; tinyxml2::XMLVisitor::`RTTI Complete Object Locator'
	DD	00H
	DD	00H
	DD	imagerel ??_R0?AVXMLVisitor@tinyxml2@@@8
	DD	imagerel ??_R3XMLVisitor@tinyxml2@@8
	DD	imagerel ??_R4XMLVisitor@tinyxml2@@6B@
rdata$r	ENDS
;	COMDAT ??_R1A@?0A@EA@MemPool@tinyxml2@@8
rdata$r	SEGMENT
??_R1A@?0A@EA@MemPool@tinyxml2@@8 DD imagerel ??_R0?AVMemPool@tinyxml2@@@8 ; tinyxml2::MemPool::`RTTI Base Class Descriptor at (0,-1,0,64)'
	DD	00H
	DD	00H
	DD	0ffffffffH
	DD	00H
	DD	040H
	DD	imagerel ??_R3MemPool@tinyxml2@@8
rdata$r	ENDS
;	COMDAT ??_R2MemPool@tinyxml2@@8
rdata$r	SEGMENT
??_R2MemPool@tinyxml2@@8 DD imagerel ??_R1A@?0A@EA@MemPool@tinyxml2@@8 ; tinyxml2::MemPool::`RTTI Base Class Array'
	ORG $+3
rdata$r	ENDS
;	COMDAT ??_R3MemPool@tinyxml2@@8
rdata$r	SEGMENT
??_R3MemPool@tinyxml2@@8 DD 00H				; tinyxml2::MemPool::`RTTI Class Hierarchy Descriptor'
	DD	00H
	DD	01H
	DD	imagerel ??_R2MemPool@tinyxml2@@8
rdata$r	ENDS
;	COMDAT ??_R0?AVMemPool@tinyxml2@@@8
data$rs	SEGMENT
??_R0?AVMemPool@tinyxml2@@@8 DQ FLAT:??_7type_info@@6B@	; tinyxml2::MemPool `RTTI Type Descriptor'
	DQ	0000000000000000H
	DB	'.?AVMemPool@tinyxml2@@', 00H
data$rs	ENDS
;	COMDAT ??_R4MemPool@tinyxml2@@6B@
rdata$r	SEGMENT
??_R4MemPool@tinyxml2@@6B@ DD 01H			; tinyxml2::MemPool::`RTTI Complete Object Locator'
	DD	00H
	DD	00H
	DD	imagerel ??_R0?AVMemPool@tinyxml2@@@8
	DD	imagerel ??_R3MemPool@tinyxml2@@8
	DD	imagerel ??_R4MemPool@tinyxml2@@6B@
rdata$r	ENDS
;	COMDAT ??_R2XMLVisitor@tinyxml2@@8
rdata$r	SEGMENT
??_R2XMLVisitor@tinyxml2@@8 DD imagerel ??_R1A@?0A@EA@XMLVisitor@tinyxml2@@8 ; tinyxml2::XMLVisitor::`RTTI Base Class Array'
	ORG $+3
rdata$r	ENDS
;	COMDAT ??_R3XMLVisitor@tinyxml2@@8
rdata$r	SEGMENT
??_R3XMLVisitor@tinyxml2@@8 DD 00H			; tinyxml2::XMLVisitor::`RTTI Class Hierarchy Descriptor'
	DD	00H
	DD	01H
	DD	imagerel ??_R2XMLVisitor@tinyxml2@@8
rdata$r	ENDS
;	COMDAT ??_R0?AVXMLVisitor@tinyxml2@@@8
data$rs	SEGMENT
??_R0?AVXMLVisitor@tinyxml2@@@8 DQ FLAT:??_7type_info@@6B@ ; tinyxml2::XMLVisitor `RTTI Type Descriptor'
	DQ	0000000000000000H
	DB	'.?AVXMLVisitor@tinyxml2@@', 00H
data$rs	ENDS
;	COMDAT ??_R1A@?0A@EA@XMLVisitor@tinyxml2@@8
rdata$r	SEGMENT
??_R1A@?0A@EA@XMLVisitor@tinyxml2@@8 DD imagerel ??_R0?AVXMLVisitor@tinyxml2@@@8 ; tinyxml2::XMLVisitor::`RTTI Base Class Descriptor at (0,-1,0,64)'
	DD	00H
	DD	00H
	DD	0ffffffffH
	DD	00H
	DD	040H
	DD	imagerel ??_R3XMLVisitor@tinyxml2@@8
rdata$r	ENDS
;	COMDAT ??_R1A@?0A@EA@XMLPrinter@tinyxml2@@8
rdata$r	SEGMENT
??_R1A@?0A@EA@XMLPrinter@tinyxml2@@8 DD imagerel ??_R0?AVXMLPrinter@tinyxml2@@@8 ; tinyxml2::XMLPrinter::`RTTI Base Class Descriptor at (0,-1,0,64)'
	DD	01H
	DD	00H
	DD	0ffffffffH
	DD	00H
	DD	040H
	DD	imagerel ??_R3XMLPrinter@tinyxml2@@8
rdata$r	ENDS
;	COMDAT ??_R2XMLPrinter@tinyxml2@@8
rdata$r	SEGMENT
??_R2XMLPrinter@tinyxml2@@8 DD imagerel ??_R1A@?0A@EA@XMLPrinter@tinyxml2@@8 ; tinyxml2::XMLPrinter::`RTTI Base Class Array'
	DD	imagerel ??_R1A@?0A@EA@XMLVisitor@tinyxml2@@8
	ORG $+3
rdata$r	ENDS
;	COMDAT ??_R3XMLPrinter@tinyxml2@@8
rdata$r	SEGMENT
??_R3XMLPrinter@tinyxml2@@8 DD 00H			; tinyxml2::XMLPrinter::`RTTI Class Hierarchy Descriptor'
	DD	00H
	DD	02H
	DD	imagerel ??_R2XMLPrinter@tinyxml2@@8
rdata$r	ENDS
;	COMDAT ??_R0?AVXMLPrinter@tinyxml2@@@8
data$rs	SEGMENT
??_R0?AVXMLPrinter@tinyxml2@@@8 DQ FLAT:??_7type_info@@6B@ ; tinyxml2::XMLPrinter `RTTI Type Descriptor'
	DQ	0000000000000000H
	DB	'.?AVXMLPrinter@tinyxml2@@', 00H
data$rs	ENDS
;	COMDAT ??_R4XMLPrinter@tinyxml2@@6B@
rdata$r	SEGMENT
??_R4XMLPrinter@tinyxml2@@6B@ DD 01H			; tinyxml2::XMLPrinter::`RTTI Complete Object Locator'
	DD	00H
	DD	00H
	DD	imagerel ??_R0?AVXMLPrinter@tinyxml2@@@8
	DD	imagerel ??_R3XMLPrinter@tinyxml2@@8
	DD	imagerel ??_R4XMLPrinter@tinyxml2@@6B@
rdata$r	ENDS
;	COMDAT ??_R1A@?0A@EA@XMLUnknown@tinyxml2@@8
rdata$r	SEGMENT
??_R1A@?0A@EA@XMLUnknown@tinyxml2@@8 DD imagerel ??_R0?AVXMLUnknown@tinyxml2@@@8 ; tinyxml2::XMLUnknown::`RTTI Base Class Descriptor at (0,-1,0,64)'
	DD	01H
	DD	00H
	DD	0ffffffffH
	DD	00H
	DD	040H
	DD	imagerel ??_R3XMLUnknown@tinyxml2@@8
rdata$r	ENDS
;	COMDAT ??_R2XMLUnknown@tinyxml2@@8
rdata$r	SEGMENT
??_R2XMLUnknown@tinyxml2@@8 DD imagerel ??_R1A@?0A@EA@XMLUnknown@tinyxml2@@8 ; tinyxml2::XMLUnknown::`RTTI Base Class Array'
	DD	imagerel ??_R1A@?0A@EA@XMLNode@tinyxml2@@8
	ORG $+3
rdata$r	ENDS
;	COMDAT ??_R3XMLUnknown@tinyxml2@@8
rdata$r	SEGMENT
??_R3XMLUnknown@tinyxml2@@8 DD 00H			; tinyxml2::XMLUnknown::`RTTI Class Hierarchy Descriptor'
	DD	00H
	DD	02H
	DD	imagerel ??_R2XMLUnknown@tinyxml2@@8
rdata$r	ENDS
;	COMDAT ??_R0?AVXMLUnknown@tinyxml2@@@8
data$rs	SEGMENT
??_R0?AVXMLUnknown@tinyxml2@@@8 DQ FLAT:??_7type_info@@6B@ ; tinyxml2::XMLUnknown `RTTI Type Descriptor'
	DQ	0000000000000000H
	DB	'.?AVXMLUnknown@tinyxml2@@', 00H
data$rs	ENDS
;	COMDAT ??_R4XMLUnknown@tinyxml2@@6B@
rdata$r	SEGMENT
??_R4XMLUnknown@tinyxml2@@6B@ DD 01H			; tinyxml2::XMLUnknown::`RTTI Complete Object Locator'
	DD	00H
	DD	00H
	DD	imagerel ??_R0?AVXMLUnknown@tinyxml2@@@8
	DD	imagerel ??_R3XMLUnknown@tinyxml2@@8
	DD	imagerel ??_R4XMLUnknown@tinyxml2@@6B@
rdata$r	ENDS
;	COMDAT ??_R1A@?0A@EA@XMLDeclaration@tinyxml2@@8
rdata$r	SEGMENT
??_R1A@?0A@EA@XMLDeclaration@tinyxml2@@8 DD imagerel ??_R0?AVXMLDeclaration@tinyxml2@@@8 ; tinyxml2::XMLDeclaration::`RTTI Base Class Descriptor at (0,-1,0,64)'
	DD	01H
	DD	00H
	DD	0ffffffffH
	DD	00H
	DD	040H
	DD	imagerel ??_R3XMLDeclaration@tinyxml2@@8
rdata$r	ENDS
;	COMDAT ??_R2XMLDeclaration@tinyxml2@@8
rdata$r	SEGMENT
??_R2XMLDeclaration@tinyxml2@@8 DD imagerel ??_R1A@?0A@EA@XMLDeclaration@tinyxml2@@8 ; tinyxml2::XMLDeclaration::`RTTI Base Class Array'
	DD	imagerel ??_R1A@?0A@EA@XMLNode@tinyxml2@@8
	ORG $+3
rdata$r	ENDS
;	COMDAT ??_R3XMLDeclaration@tinyxml2@@8
rdata$r	SEGMENT
??_R3XMLDeclaration@tinyxml2@@8 DD 00H			; tinyxml2::XMLDeclaration::`RTTI Class Hierarchy Descriptor'
	DD	00H
	DD	02H
	DD	imagerel ??_R2XMLDeclaration@tinyxml2@@8
rdata$r	ENDS
;	COMDAT ??_R0?AVXMLDeclaration@tinyxml2@@@8
data$rs	SEGMENT
??_R0?AVXMLDeclaration@tinyxml2@@@8 DQ FLAT:??_7type_info@@6B@ ; tinyxml2::XMLDeclaration `RTTI Type Descriptor'
	DQ	0000000000000000H
	DB	'.?AVXMLDeclaration@tinyxml2@@', 00H
data$rs	ENDS
;	COMDAT ??_R4XMLDeclaration@tinyxml2@@6B@
rdata$r	SEGMENT
??_R4XMLDeclaration@tinyxml2@@6B@ DD 01H		; tinyxml2::XMLDeclaration::`RTTI Complete Object Locator'
	DD	00H
	DD	00H
	DD	imagerel ??_R0?AVXMLDeclaration@tinyxml2@@@8
	DD	imagerel ??_R3XMLDeclaration@tinyxml2@@8
	DD	imagerel ??_R4XMLDeclaration@tinyxml2@@6B@
rdata$r	ENDS
;	COMDAT ??_R1A@?0A@EA@XMLText@tinyxml2@@8
rdata$r	SEGMENT
??_R1A@?0A@EA@XMLText@tinyxml2@@8 DD imagerel ??_R0?AVXMLText@tinyxml2@@@8 ; tinyxml2::XMLText::`RTTI Base Class Descriptor at (0,-1,0,64)'
	DD	01H
	DD	00H
	DD	0ffffffffH
	DD	00H
	DD	040H
	DD	imagerel ??_R3XMLText@tinyxml2@@8
rdata$r	ENDS
;	COMDAT ??_R2XMLText@tinyxml2@@8
rdata$r	SEGMENT
??_R2XMLText@tinyxml2@@8 DD imagerel ??_R1A@?0A@EA@XMLText@tinyxml2@@8 ; tinyxml2::XMLText::`RTTI Base Class Array'
	DD	imagerel ??_R1A@?0A@EA@XMLNode@tinyxml2@@8
	ORG $+3
rdata$r	ENDS
;	COMDAT ??_R3XMLText@tinyxml2@@8
rdata$r	SEGMENT
??_R3XMLText@tinyxml2@@8 DD 00H				; tinyxml2::XMLText::`RTTI Class Hierarchy Descriptor'
	DD	00H
	DD	02H
	DD	imagerel ??_R2XMLText@tinyxml2@@8
rdata$r	ENDS
;	COMDAT ??_R0?AVXMLText@tinyxml2@@@8
data$rs	SEGMENT
??_R0?AVXMLText@tinyxml2@@@8 DQ FLAT:??_7type_info@@6B@	; tinyxml2::XMLText `RTTI Type Descriptor'
	DQ	0000000000000000H
	DB	'.?AVXMLText@tinyxml2@@', 00H
data$rs	ENDS
;	COMDAT ??_R4XMLText@tinyxml2@@6B@
rdata$r	SEGMENT
??_R4XMLText@tinyxml2@@6B@ DD 01H			; tinyxml2::XMLText::`RTTI Complete Object Locator'
	DD	00H
	DD	00H
	DD	imagerel ??_R0?AVXMLText@tinyxml2@@@8
	DD	imagerel ??_R3XMLText@tinyxml2@@8
	DD	imagerel ??_R4XMLText@tinyxml2@@6B@
rdata$r	ENDS
;	COMDAT ??_R1A@?0A@EA@XMLComment@tinyxml2@@8
rdata$r	SEGMENT
??_R1A@?0A@EA@XMLComment@tinyxml2@@8 DD imagerel ??_R0?AVXMLComment@tinyxml2@@@8 ; tinyxml2::XMLComment::`RTTI Base Class Descriptor at (0,-1,0,64)'
	DD	01H
	DD	00H
	DD	0ffffffffH
	DD	00H
	DD	040H
	DD	imagerel ??_R3XMLComment@tinyxml2@@8
rdata$r	ENDS
;	COMDAT ??_R2XMLComment@tinyxml2@@8
rdata$r	SEGMENT
??_R2XMLComment@tinyxml2@@8 DD imagerel ??_R1A@?0A@EA@XMLComment@tinyxml2@@8 ; tinyxml2::XMLComment::`RTTI Base Class Array'
	DD	imagerel ??_R1A@?0A@EA@XMLNode@tinyxml2@@8
	ORG $+3
rdata$r	ENDS
;	COMDAT ??_R3XMLComment@tinyxml2@@8
rdata$r	SEGMENT
??_R3XMLComment@tinyxml2@@8 DD 00H			; tinyxml2::XMLComment::`RTTI Class Hierarchy Descriptor'
	DD	00H
	DD	02H
	DD	imagerel ??_R2XMLComment@tinyxml2@@8
rdata$r	ENDS
;	COMDAT ??_R0?AVXMLComment@tinyxml2@@@8
data$rs	SEGMENT
??_R0?AVXMLComment@tinyxml2@@@8 DQ FLAT:??_7type_info@@6B@ ; tinyxml2::XMLComment `RTTI Type Descriptor'
	DQ	0000000000000000H
	DB	'.?AVXMLComment@tinyxml2@@', 00H
data$rs	ENDS
;	COMDAT ??_R4XMLComment@tinyxml2@@6B@
rdata$r	SEGMENT
??_R4XMLComment@tinyxml2@@6B@ DD 01H			; tinyxml2::XMLComment::`RTTI Complete Object Locator'
	DD	00H
	DD	00H
	DD	imagerel ??_R0?AVXMLComment@tinyxml2@@@8
	DD	imagerel ??_R3XMLComment@tinyxml2@@8
	DD	imagerel ??_R4XMLComment@tinyxml2@@6B@
rdata$r	ENDS
;	COMDAT ??_R1A@?0A@EA@XMLAttribute@tinyxml2@@8
rdata$r	SEGMENT
??_R1A@?0A@EA@XMLAttribute@tinyxml2@@8 DD imagerel ??_R0?AVXMLAttribute@tinyxml2@@@8 ; tinyxml2::XMLAttribute::`RTTI Base Class Descriptor at (0,-1,0,64)'
	DD	00H
	DD	00H
	DD	0ffffffffH
	DD	00H
	DD	040H
	DD	imagerel ??_R3XMLAttribute@tinyxml2@@8
rdata$r	ENDS
;	COMDAT ??_R2XMLAttribute@tinyxml2@@8
rdata$r	SEGMENT
??_R2XMLAttribute@tinyxml2@@8 DD imagerel ??_R1A@?0A@EA@XMLAttribute@tinyxml2@@8 ; tinyxml2::XMLAttribute::`RTTI Base Class Array'
	ORG $+3
rdata$r	ENDS
;	COMDAT ??_R3XMLAttribute@tinyxml2@@8
rdata$r	SEGMENT
??_R3XMLAttribute@tinyxml2@@8 DD 00H			; tinyxml2::XMLAttribute::`RTTI Class Hierarchy Descriptor'
	DD	00H
	DD	01H
	DD	imagerel ??_R2XMLAttribute@tinyxml2@@8
rdata$r	ENDS
;	COMDAT ??_R0?AVXMLAttribute@tinyxml2@@@8
data$rs	SEGMENT
??_R0?AVXMLAttribute@tinyxml2@@@8 DQ FLAT:??_7type_info@@6B@ ; tinyxml2::XMLAttribute `RTTI Type Descriptor'
	DQ	0000000000000000H
	DB	'.?AVXMLAttribute@tinyxml2@@', 00H
data$rs	ENDS
;	COMDAT ??_R4XMLAttribute@tinyxml2@@6B@
rdata$r	SEGMENT
??_R4XMLAttribute@tinyxml2@@6B@ DD 01H			; tinyxml2::XMLAttribute::`RTTI Complete Object Locator'
	DD	00H
	DD	00H
	DD	imagerel ??_R0?AVXMLAttribute@tinyxml2@@@8
	DD	imagerel ??_R3XMLAttribute@tinyxml2@@8
	DD	imagerel ??_R4XMLAttribute@tinyxml2@@6B@
rdata$r	ENDS
;	COMDAT ??_R1A@?0A@EA@XMLElement@tinyxml2@@8
rdata$r	SEGMENT
??_R1A@?0A@EA@XMLElement@tinyxml2@@8 DD imagerel ??_R0?AVXMLElement@tinyxml2@@@8 ; tinyxml2::XMLElement::`RTTI Base Class Descriptor at (0,-1,0,64)'
	DD	01H
	DD	00H
	DD	0ffffffffH
	DD	00H
	DD	040H
	DD	imagerel ??_R3XMLElement@tinyxml2@@8
rdata$r	ENDS
;	COMDAT ??_R2XMLElement@tinyxml2@@8
rdata$r	SEGMENT
??_R2XMLElement@tinyxml2@@8 DD imagerel ??_R1A@?0A@EA@XMLElement@tinyxml2@@8 ; tinyxml2::XMLElement::`RTTI Base Class Array'
	DD	imagerel ??_R1A@?0A@EA@XMLNode@tinyxml2@@8
	ORG $+3
rdata$r	ENDS
;	COMDAT ??_R3XMLElement@tinyxml2@@8
rdata$r	SEGMENT
??_R3XMLElement@tinyxml2@@8 DD 00H			; tinyxml2::XMLElement::`RTTI Class Hierarchy Descriptor'
	DD	00H
	DD	02H
	DD	imagerel ??_R2XMLElement@tinyxml2@@8
rdata$r	ENDS
;	COMDAT ??_R0?AVXMLElement@tinyxml2@@@8
data$rs	SEGMENT
??_R0?AVXMLElement@tinyxml2@@@8 DQ FLAT:??_7type_info@@6B@ ; tinyxml2::XMLElement `RTTI Type Descriptor'
	DQ	0000000000000000H
	DB	'.?AVXMLElement@tinyxml2@@', 00H
data$rs	ENDS
;	COMDAT ??_R4XMLElement@tinyxml2@@6B@
rdata$r	SEGMENT
??_R4XMLElement@tinyxml2@@6B@ DD 01H			; tinyxml2::XMLElement::`RTTI Complete Object Locator'
	DD	00H
	DD	00H
	DD	imagerel ??_R0?AVXMLElement@tinyxml2@@@8
	DD	imagerel ??_R3XMLElement@tinyxml2@@8
	DD	imagerel ??_R4XMLElement@tinyxml2@@6B@
rdata$r	ENDS
;	COMDAT ??_R2XMLNode@tinyxml2@@8
rdata$r	SEGMENT
??_R2XMLNode@tinyxml2@@8 DD imagerel ??_R1A@?0A@EA@XMLNode@tinyxml2@@8 ; tinyxml2::XMLNode::`RTTI Base Class Array'
	ORG $+3
rdata$r	ENDS
;	COMDAT ??_R3XMLNode@tinyxml2@@8
rdata$r	SEGMENT
??_R3XMLNode@tinyxml2@@8 DD 00H				; tinyxml2::XMLNode::`RTTI Class Hierarchy Descriptor'
	DD	00H
	DD	01H
	DD	imagerel ??_R2XMLNode@tinyxml2@@8
rdata$r	ENDS
;	COMDAT ??_R0?AVXMLNode@tinyxml2@@@8
data$rs	SEGMENT
??_R0?AVXMLNode@tinyxml2@@@8 DQ FLAT:??_7type_info@@6B@	; tinyxml2::XMLNode `RTTI Type Descriptor'
	DQ	0000000000000000H
	DB	'.?AVXMLNode@tinyxml2@@', 00H
data$rs	ENDS
;	COMDAT ??_R1A@?0A@EA@XMLNode@tinyxml2@@8
rdata$r	SEGMENT
??_R1A@?0A@EA@XMLNode@tinyxml2@@8 DD imagerel ??_R0?AVXMLNode@tinyxml2@@@8 ; tinyxml2::XMLNode::`RTTI Base Class Descriptor at (0,-1,0,64)'
	DD	00H
	DD	00H
	DD	0ffffffffH
	DD	00H
	DD	040H
	DD	imagerel ??_R3XMLNode@tinyxml2@@8
rdata$r	ENDS
;	COMDAT ??_R1A@?0A@EA@XMLDocument@tinyxml2@@8
rdata$r	SEGMENT
??_R1A@?0A@EA@XMLDocument@tinyxml2@@8 DD imagerel ??_R0?AVXMLDocument@tinyxml2@@@8 ; tinyxml2::XMLDocument::`RTTI Base Class Descriptor at (0,-1,0,64)'
	DD	01H
	DD	00H
	DD	0ffffffffH
	DD	00H
	DD	040H
	DD	imagerel ??_R3XMLDocument@tinyxml2@@8
rdata$r	ENDS
;	COMDAT ??_R2XMLDocument@tinyxml2@@8
rdata$r	SEGMENT
??_R2XMLDocument@tinyxml2@@8 DD imagerel ??_R1A@?0A@EA@XMLDocument@tinyxml2@@8 ; tinyxml2::XMLDocument::`RTTI Base Class Array'
	DD	imagerel ??_R1A@?0A@EA@XMLNode@tinyxml2@@8
	ORG $+3
rdata$r	ENDS
;	COMDAT ??_R3XMLDocument@tinyxml2@@8
rdata$r	SEGMENT
??_R3XMLDocument@tinyxml2@@8 DD 00H			; tinyxml2::XMLDocument::`RTTI Class Hierarchy Descriptor'
	DD	00H
	DD	02H
	DD	imagerel ??_R2XMLDocument@tinyxml2@@8
rdata$r	ENDS
;	COMDAT ??_R0?AVXMLDocument@tinyxml2@@@8
data$rs	SEGMENT
??_R0?AVXMLDocument@tinyxml2@@@8 DQ FLAT:??_7type_info@@6B@ ; tinyxml2::XMLDocument `RTTI Type Descriptor'
	DQ	0000000000000000H
	DB	'.?AVXMLDocument@tinyxml2@@', 00H
data$rs	ENDS
;	COMDAT ??_R4XMLDocument@tinyxml2@@6B@
rdata$r	SEGMENT
??_R4XMLDocument@tinyxml2@@6B@ DD 01H			; tinyxml2::XMLDocument::`RTTI Complete Object Locator'
	DD	00H
	DD	00H
	DD	imagerel ??_R0?AVXMLDocument@tinyxml2@@@8
	DD	imagerel ??_R3XMLDocument@tinyxml2@@8
	DD	imagerel ??_R4XMLDocument@tinyxml2@@6B@
rdata$r	ENDS
;	COMDAT ??_C@_02DPNDACHE@?$DM?1@
CONST	SEGMENT
??_C@_02DPNDACHE@?$DM?1@ DB '</', 00H			; `string'
CONST	ENDS
;	COMDAT ??_C@_02HCGKDMEN@?1?$DO@
CONST	SEGMENT
??_C@_02HCGKDMEN@?1?$DO@ DB '/>', 00H			; `string'
CONST	ENDS
;	COMDAT ??_C@_02ILLPBGAO@?$DN?$CC@
CONST	SEGMENT
??_C@_02ILLPBGAO@?$DN?$CC@ DB '="', 00H			; `string'
CONST	ENDS
;	COMDAT ??_C@_0BC@CIAMHNHO@xml?5version?$DN?$CC1?40?$CC@
CONST	SEGMENT
??_C@_0BC@CIAMHNHO@xml?5version?$DN?$CC1?40?$CC@ DB 'xml version="1.0"', 00H ; `string'
CONST	ENDS
;	COMDAT ?bom@?4??PushHeader@XMLPrinter@tinyxml2@@QEAAX_N0@Z@4QBEB
CONST	SEGMENT
?bom@?4??PushHeader@XMLPrinter@tinyxml2@@QEAAX_N0@Z@4QBEB DB 0efH ; `tinyxml2::XMLPrinter::PushHeader'::`5'::bom
	DB	0bbH
	DB	0bfH
	DB	00H
CONST	ENDS
;	COMDAT ??_C@_04PFOHOKJK@?5?5?5?5@
CONST	SEGMENT
??_C@_04PFOHOKJK@?5?5?5?5@ DB '    ', 00H		; `string'
CONST	ENDS
;	COMDAT ??_C@_0BN@IABAEAMP@Element?5nesting?5is?5too?5deep?4@
CONST	SEGMENT
??_C@_0BN@IABAEAMP@Element?5nesting?5is?5too?5deep?4@ DB 'Element nesting'
	DB	' is too deep.', 00H				; `string'
CONST	ENDS
;	COMDAT ??_C@_03OFAPEBGM@?$CFs?6@
CONST	SEGMENT
??_C@_03OFAPEBGM@?$CFs?6@ DB '%s', 0aH, 00H		; `string'
CONST	ENDS
;	COMDAT ??_C@_00CNPNBAHC@@
CONST	SEGMENT
??_C@_00CNPNBAHC@@ DB 00H				; `string'
CONST	ENDS
;	COMDAT ??_C@_02LMMGGCAJ@?3?5@
CONST	SEGMENT
??_C@_02LMMGGCAJ@?3?5@ DB ': ', 00H			; `string'
CONST	ENDS
;	COMDAT ??_C@_0CK@LEBPANPP@Error?$DN?$CFs?5ErrorID?$DN?$CFd?5?$CI0x?$CFx?$CJ?5Line@
CONST	SEGMENT
??_C@_0CK@LEBPANPP@Error?$DN?$CFs?5ErrorID?$DN?$CFd?5?$CI0x?$CFx?$CJ?5Line@ DB 'E'
	DB	'rror=%s ErrorID=%d (0x%x) Line number=%d', 00H ; `string'
CONST	ENDS
;	COMDAT ??_C@_01NOFIACDB@w@
CONST	SEGMENT
??_C@_01NOFIACDB@w@ DB 'w', 00H				; `string'
CONST	ENDS
;	COMDAT ??_C@_0M@IADOOHPD@filename?$DN?$CFs@
CONST	SEGMENT
??_C@_0M@IADOOHPD@filename?$DN?$CFs@ DB 'filename=%s', 00H ; `string'
CONST	ENDS
;	COMDAT ??_C@_02JDPG@rb@
CONST	SEGMENT
??_C@_02JDPG@rb@ DB 'rb', 00H				; `string'
CONST	ENDS
;	COMDAT ??_C@_0BA@JJMHCBFE@filename?$DN?$DMnull?$DO@
CONST	SEGMENT
??_C@_0BA@JJMHCBFE@filename?$DN?$DMnull?$DO@ DB 'filename=<null>', 00H ; `string'
CONST	ENDS
;	COMDAT ??_C@_0CD@MCGGMGEP@xml?5version?$DN?$CC1?40?$CC?5encoding?$DN?$CCUTF@
CONST	SEGMENT
??_C@_0CD@MCGGMGEP@xml?5version?$DN?$CC1?40?$CC?5encoding?$DN?$CCUTF@ DB 'x'
	DB	'ml version="1.0" encoding="UTF-8"', 00H	; `string'
CONST	ENDS
;	COMDAT ??_C@_01PPODPGHN@?$DO@
CONST	SEGMENT
??_C@_01PPODPGHN@?$DO@ DB '>', 00H			; `string'
CONST	ENDS
;	COMDAT ??_C@_02GOEMJPDN@?$DP?$DO@
CONST	SEGMENT
??_C@_02GOEMJPDN@?$DP?$DO@ DB '?>', 00H			; `string'
CONST	ENDS
;	COMDAT ??_C@_03PNLDJJMO@?9?9?$DO@
CONST	SEGMENT
??_C@_03PNLDJJMO@?9?9?$DO@ DB '-->', 00H		; `string'
CONST	ENDS
;	COMDAT ??_C@_03MCHNFBAC@?$FN?$FN?$DO@
CONST	SEGMENT
??_C@_03MCHNFBAC@?$FN?$FN?$DO@ DB ']]>', 00H		; `string'
CONST	ENDS
;	COMDAT ??_C@_0BD@BLOEEMNC@XMLElement?5name?$DN?$CFs@
CONST	SEGMENT
??_C@_0BD@BLOEEMNC@XMLElement?5name?$DN?$CFs@ DB 'XMLElement name=%s', 00H ; `string'
CONST	ENDS
;	COMDAT ??_C@_0BI@GMNACMFN@XMLDeclaration?5value?$DN?$CFs@
CONST	SEGMENT
??_C@_0BI@GMNACMFN@XMLDeclaration?5value?$DN?$CFs@ DB 'XMLDeclaration val'
	DB	'ue=%s', 00H					; `string'
CONST	ENDS
;	COMDAT ??_C@_01MNNFJEPP@?$DM@
CONST	SEGMENT
??_C@_01MNNFJEPP@?$DM@ DB '<', 00H			; `string'
CONST	ENDS
;	COMDAT ?elementHeader@?1??Identify@XMLDocument@tinyxml2@@QEAAPEADPEADPEAPEAVXMLNode@3@@Z@4PEBDEB
_DATA	SEGMENT
?elementHeader@?1??Identify@XMLDocument@tinyxml2@@QEAAPEADPEADPEAPEAVXMLNode@3@@Z@4PEBDEB DQ FLAT:??_C@_01MNNFJEPP@?$DM@ ; `tinyxml2::XMLDocument::Identify'::`2'::elementHeader
_DATA	ENDS
;	COMDAT ??_C@_02KBFACPPK@?$DM?$CB@
CONST	SEGMENT
??_C@_02KBFACPPK@?$DM?$CB@ DB '<!', 00H			; `string'
CONST	ENDS
;	COMDAT ?dtdHeader@?1??Identify@XMLDocument@tinyxml2@@QEAAPEADPEADPEAPEAVXMLNode@3@@Z@4PEBDEB
_DATA	SEGMENT
?dtdHeader@?1??Identify@XMLDocument@tinyxml2@@QEAAPEADPEADPEAPEAVXMLNode@3@@Z@4PEBDEB DQ FLAT:??_C@_02KBFACPPK@?$DM?$CB@ ; `tinyxml2::XMLDocument::Identify'::`2'::dtdHeader
_DATA	ENDS
;	COMDAT ??_C@_09BLLNCBLF@?$DM?$CB?$FLCDATA?$FL@
CONST	SEGMENT
??_C@_09BLLNCBLF@?$DM?$CB?$FLCDATA?$FL@ DB '<![CDATA[', 00H ; `string'
CONST	ENDS
;	COMDAT ?cdataHeader@?1??Identify@XMLDocument@tinyxml2@@QEAAPEADPEADPEAPEAVXMLNode@3@@Z@4PEBDEB
_DATA	SEGMENT
?cdataHeader@?1??Identify@XMLDocument@tinyxml2@@QEAAPEADPEADPEAPEAVXMLNode@3@@Z@4PEBDEB DQ FLAT:??_C@_09BLLNCBLF@?$DM?$CB?$FLCDATA?$FL@ ; `tinyxml2::XMLDocument::Identify'::`2'::cdataHeader
_DATA	ENDS
;	COMDAT ??_C@_04FFDNBKGC@?$DM?$CB?9?9@
CONST	SEGMENT
??_C@_04FFDNBKGC@?$DM?$CB?9?9@ DB '<!--', 00H		; `string'
CONST	ENDS
;	COMDAT ?commentHeader@?1??Identify@XMLDocument@tinyxml2@@QEAAPEADPEADPEAPEAVXMLNode@3@@Z@4PEBDEB
_DATA	SEGMENT
?commentHeader@?1??Identify@XMLDocument@tinyxml2@@QEAAPEADPEADPEAPEAVXMLNode@3@@Z@4PEBDEB DQ FLAT:??_C@_04FFDNBKGC@?$DM?$CB?9?9@ ; `tinyxml2::XMLDocument::Identify'::`2'::commentHeader
_DATA	ENDS
;	COMDAT ??_C@_02HFBBBACF@?$DM?$DP@
CONST	SEGMENT
??_C@_02HFBBBACF@?$DM?$DP@ DB '<?', 00H			; `string'
CONST	ENDS
;	COMDAT ?xmlHeader@?1??Identify@XMLDocument@tinyxml2@@QEAAPEADPEADPEAPEAVXMLNode@3@@Z@4PEBDEB
_DATA	SEGMENT
?xmlHeader@?1??Identify@XMLDocument@tinyxml2@@QEAAPEADPEADPEAPEAVXMLNode@3@@Z@4PEBDEB DQ FLAT:??_C@_02HFBBBACF@?$DM?$DP@ ; `tinyxml2::XMLDocument::Identify'::`2'::xmlHeader
_DATA	ENDS
;	COMDAT ??_C@_04OHCHCBJH@?$CFllx@
CONST	SEGMENT
??_C@_04OHCHCBJH@?$CFllx@ DB '%llx', 00H		; `string'
CONST	ENDS
;	COMDAT ??_C@_03DLDNIBIK@?$CFlf@
CONST	SEGMENT
??_C@_03DLDNIBIK@?$CFlf@ DB '%lf', 00H			; `string'
CONST	ENDS
;	COMDAT ??_C@_02NJPGOMH@?$CFf@
CONST	SEGMENT
??_C@_02NJPGOMH@?$CFf@ DB '%f', 00H			; `string'
CONST	ENDS
;	COMDAT ??_C@_05MAJJAKPI@FALSE@
CONST	SEGMENT
??_C@_05MAJJAKPI@FALSE@ DB 'FALSE', 00H			; `string'
CONST	ENDS
;	COMDAT ??_C@_05MKDOIIA@False@
CONST	SEGMENT
??_C@_05MKDOIIA@False@ DB 'False', 00H			; `string'
CONST	ENDS
;	COMDAT ?FALSE_VALS@?1??ToBool@XMLUtil@tinyxml2@@SA_NPEBDPEA_N@Z@4PAPEBDA
_DATA	SEGMENT
?FALSE_VALS@?1??ToBool@XMLUtil@tinyxml2@@SA_NPEBDPEA_N@Z@4PAPEBDA DQ FLAT:??_C@_05LAPONLG@false@ ; `tinyxml2::XMLUtil::ToBool'::`2'::FALSE_VALS
	DQ	FLAT:??_C@_05MKDOIIA@False@
	DQ	FLAT:??_C@_05MAJJAKPI@FALSE@
	DQ	0000000000000000H
_DATA	ENDS
;	COMDAT ??_C@_04HCDDPBNL@TRUE@
CONST	SEGMENT
??_C@_04HCDDPBNL@TRUE@ DB 'TRUE', 00H			; `string'
CONST	ENDS
;	COMDAT ??_C@_04HPMIDMKH@True@
CONST	SEGMENT
??_C@_04HPMIDMKH@True@ DB 'True', 00H			; `string'
CONST	ENDS
;	COMDAT ?TRUE_VALS@?1??ToBool@XMLUtil@tinyxml2@@SA_NPEBDPEA_N@Z@4PAPEBDA
_DATA	SEGMENT
?TRUE_VALS@?1??ToBool@XMLUtil@tinyxml2@@SA_NPEBDPEA_N@Z@4PAPEBDA DQ FLAT:??_C@_04LOAJBDKD@true@ ; `tinyxml2::XMLUtil::ToBool'::`2'::TRUE_VALS
	DQ	FLAT:??_C@_04HPMIDMKH@True@
	DQ	FLAT:??_C@_04HCDDPBNL@TRUE@
	DQ	0000000000000000H
_DATA	ENDS
;	COMDAT ??_C@_02NJNOFBBI@?$CFx@
CONST	SEGMENT
??_C@_02NJNOFBBI@?$CFx@ DB '%x', 00H			; `string'
CONST	ENDS
;	COMDAT ??_C@_04FCIJFPNK@?$CFllu@
CONST	SEGMENT
??_C@_04FCIJFPNK@?$CFllu@ DB '%llu', 00H		; `string'
CONST	ENDS
;	COMDAT ??_C@_04BFAHMMK@?$CFlld@
CONST	SEGMENT
??_C@_04BFAHMMK@?$CFlld@ DB '%lld', 00H			; `string'
CONST	ENDS
;	COMDAT ??_C@_05CEKCMKAN@?$CF?417g@
CONST	SEGMENT
??_C@_05CEKCMKAN@?$CF?417g@ DB '%.17g', 00H		; `string'
CONST	ENDS
;	COMDAT ??_C@_04HANFDJND@?$CF?48g@
CONST	SEGMENT
??_C@_04HANFDJND@?$CF?48g@ DB '%.8g', 00H		; `string'
CONST	ENDS
;	COMDAT ??_C@_02DKCKIIND@?$CFs@
CONST	SEGMENT
??_C@_02DKCKIIND@?$CFs@ DB '%s', 00H			; `string'
CONST	ENDS
;	COMDAT ??_C@_02GMHACPFF@?$CFu@
CONST	SEGMENT
??_C@_02GMHACPFF@?$CFu@ DB '%u', 00H			; `string'
CONST	ENDS
;	COMDAT ??_C@_02DPKJAMEF@?$CFd@
CONST	SEGMENT
??_C@_02DPKJAMEF@?$CFd@ DB '%d', 00H			; `string'
CONST	ENDS
;	COMDAT ?defFalse@?1??SetBoolSerialization@XMLUtil@tinyxml2@@SAXPEBD0@Z@4PEBDEB
_DATA	SEGMENT
?defFalse@?1??SetBoolSerialization@XMLUtil@tinyxml2@@SAXPEBD0@Z@4PEBDEB DQ FLAT:??_C@_05LAPONLG@false@ ; `tinyxml2::XMLUtil::SetBoolSerialization'::`2'::defFalse
_DATA	ENDS
;	COMDAT ?defTrue@?1??SetBoolSerialization@XMLUtil@tinyxml2@@SAXPEBD0@Z@4PEBDEB
_DATA	SEGMENT
?defTrue@?1??SetBoolSerialization@XMLUtil@tinyxml2@@SAXPEBD0@Z@4PEBDEB DQ FLAT:??_C@_04LOAJBDKD@true@ ; `tinyxml2::XMLUtil::SetBoolSerialization'::`2'::defTrue
_DATA	ENDS
;	COMDAT ??_7XMLPrinter@tinyxml2@@6B@
CONST	SEGMENT
??_7XMLPrinter@tinyxml2@@6B@ DQ FLAT:??_R4XMLPrinter@tinyxml2@@6B@ ; tinyxml2::XMLPrinter::`vftable'
	DQ	FLAT:??_EXMLPrinter@tinyxml2@@UEAAPEAXI@Z
	DQ	FLAT:?VisitEnter@XMLPrinter@tinyxml2@@UEAA_NAEBVXMLElement@2@PEBVXMLAttribute@2@@Z
	DQ	FLAT:?VisitEnter@XMLPrinter@tinyxml2@@UEAA_NAEBVXMLDocument@2@@Z
	DQ	FLAT:?VisitExit@XMLPrinter@tinyxml2@@UEAA_NAEBVXMLElement@2@@Z
	DQ	FLAT:?VisitExit@XMLPrinter@tinyxml2@@UEAA_NAEBVXMLDocument@2@@Z
	DQ	FLAT:?Visit@XMLPrinter@tinyxml2@@UEAA_NAEBVXMLUnknown@2@@Z
	DQ	FLAT:?Visit@XMLPrinter@tinyxml2@@UEAA_NAEBVXMLComment@2@@Z
	DQ	FLAT:?Visit@XMLPrinter@tinyxml2@@UEAA_NAEBVXMLText@2@@Z
	DQ	FLAT:?Visit@XMLPrinter@tinyxml2@@UEAA_NAEBVXMLDeclaration@2@@Z
	DQ	FLAT:?CloseElement@XMLPrinter@tinyxml2@@UEAAX_N@Z
	DQ	FLAT:?CompactMode@XMLPrinter@tinyxml2@@MEAA_NAEBVXMLElement@2@@Z
	DQ	FLAT:?PrintSpace@XMLPrinter@tinyxml2@@MEAAXH@Z
	DQ	FLAT:?Print@XMLPrinter@tinyxml2@@MEAAXPEBDZZ
	DQ	FLAT:?Write@XMLPrinter@tinyxml2@@MEAAXPEBD_K@Z
	DQ	FLAT:?Putc@XMLPrinter@tinyxml2@@MEAAXD@Z
CONST	ENDS
;	COMDAT ??_7XMLDocument@tinyxml2@@6B@
CONST	SEGMENT
??_7XMLDocument@tinyxml2@@6B@ DQ FLAT:??_R4XMLDocument@tinyxml2@@6B@ ; tinyxml2::XMLDocument::`vftable'
	DQ	FLAT:?ToElement@XMLNode@tinyxml2@@UEBAPEBVXMLElement@2@XZ
	DQ	FLAT:?ToElement@XMLNode@tinyxml2@@UEAAPEAVXMLElement@2@XZ
	DQ	FLAT:?ToText@XMLNode@tinyxml2@@UEBAPEBVXMLText@2@XZ
	DQ	FLAT:?ToText@XMLNode@tinyxml2@@UEAAPEAVXMLText@2@XZ
	DQ	FLAT:?ToComment@XMLNode@tinyxml2@@UEBAPEBVXMLComment@2@XZ
	DQ	FLAT:?ToComment@XMLNode@tinyxml2@@UEAAPEAVXMLComment@2@XZ
	DQ	FLAT:?ToDocument@XMLDocument@tinyxml2@@UEBAPEBV12@XZ
	DQ	FLAT:?ToDocument@XMLDocument@tinyxml2@@UEAAPEAV12@XZ
	DQ	FLAT:?ToDeclaration@XMLNode@tinyxml2@@UEBAPEBVXMLDeclaration@2@XZ
	DQ	FLAT:?ToDeclaration@XMLNode@tinyxml2@@UEAAPEAVXMLDeclaration@2@XZ
	DQ	FLAT:?ToUnknown@XMLNode@tinyxml2@@UEBAPEBVXMLUnknown@2@XZ
	DQ	FLAT:?ToUnknown@XMLNode@tinyxml2@@UEAAPEAVXMLUnknown@2@XZ
	DQ	FLAT:?ShallowClone@XMLDocument@tinyxml2@@UEBAPEAVXMLNode@2@PEAV12@@Z
	DQ	FLAT:?ShallowEqual@XMLDocument@tinyxml2@@UEBA_NPEBVXMLNode@2@@Z
	DQ	FLAT:?Accept@XMLDocument@tinyxml2@@UEBA_NPEAVXMLVisitor@2@@Z
	DQ	FLAT:??_EXMLDocument@tinyxml2@@UEAAPEAXI@Z
	DQ	FLAT:?ParseDeep@XMLNode@tinyxml2@@MEAAPEADPEADPEAVStrPair@2@PEAH@Z
CONST	ENDS
;	COMDAT ??_7?$MemPoolT@$0GI@@tinyxml2@@6B@
CONST	SEGMENT
??_7?$MemPoolT@$0GI@@tinyxml2@@6B@ DQ FLAT:??_R4?$MemPoolT@$0GI@@tinyxml2@@6B@ ; tinyxml2::MemPoolT<104>::`vftable'
	DQ	FLAT:??_E?$MemPoolT@$0GI@@tinyxml2@@UEAAPEAXI@Z
	DQ	FLAT:?ItemSize@?$MemPoolT@$0GI@@tinyxml2@@UEBAHXZ
	DQ	FLAT:?Alloc@?$MemPoolT@$0GI@@tinyxml2@@UEAAPEAXXZ
	DQ	FLAT:?Free@?$MemPoolT@$0GI@@tinyxml2@@UEAAXPEAX@Z
	DQ	FLAT:?SetTracked@?$MemPoolT@$0GI@@tinyxml2@@UEAAXXZ
CONST	ENDS
;	COMDAT ??_7?$MemPoolT@$0HA@@tinyxml2@@6B@
CONST	SEGMENT
??_7?$MemPoolT@$0HA@@tinyxml2@@6B@ DQ FLAT:??_R4?$MemPoolT@$0HA@@tinyxml2@@6B@ ; tinyxml2::MemPoolT<112>::`vftable'
	DQ	FLAT:??_E?$MemPoolT@$0HA@@tinyxml2@@UEAAPEAXI@Z
	DQ	FLAT:?ItemSize@?$MemPoolT@$0HA@@tinyxml2@@UEBAHXZ
	DQ	FLAT:?Alloc@?$MemPoolT@$0HA@@tinyxml2@@UEAAPEAXXZ
	DQ	FLAT:?Free@?$MemPoolT@$0HA@@tinyxml2@@UEAAXPEAX@Z
	DQ	FLAT:?SetTracked@?$MemPoolT@$0HA@@tinyxml2@@UEAAXXZ
CONST	ENDS
;	COMDAT ??_7?$MemPoolT@$0FA@@tinyxml2@@6B@
CONST	SEGMENT
??_7?$MemPoolT@$0FA@@tinyxml2@@6B@ DQ FLAT:??_R4?$MemPoolT@$0FA@@tinyxml2@@6B@ ; tinyxml2::MemPoolT<80>::`vftable'
	DQ	FLAT:??_E?$MemPoolT@$0FA@@tinyxml2@@UEAAPEAXI@Z
	DQ	FLAT:?ItemSize@?$MemPoolT@$0FA@@tinyxml2@@UEBAHXZ
	DQ	FLAT:?Alloc@?$MemPoolT@$0FA@@tinyxml2@@UEAAPEAXXZ
	DQ	FLAT:?Free@?$MemPoolT@$0FA@@tinyxml2@@UEAAXPEAX@Z
	DQ	FLAT:?SetTracked@?$MemPoolT@$0FA@@tinyxml2@@UEAAXXZ
CONST	ENDS
;	COMDAT ??_7?$MemPoolT@$0HI@@tinyxml2@@6B@
CONST	SEGMENT
??_7?$MemPoolT@$0HI@@tinyxml2@@6B@ DQ FLAT:??_R4?$MemPoolT@$0HI@@tinyxml2@@6B@ ; tinyxml2::MemPoolT<120>::`vftable'
	DQ	FLAT:??_E?$MemPoolT@$0HI@@tinyxml2@@UEAAPEAXI@Z
	DQ	FLAT:?ItemSize@?$MemPoolT@$0HI@@tinyxml2@@UEBAHXZ
	DQ	FLAT:?Alloc@?$MemPoolT@$0HI@@tinyxml2@@UEAAPEAXXZ
	DQ	FLAT:?Free@?$MemPoolT@$0HI@@tinyxml2@@UEAAXPEAX@Z
	DQ	FLAT:?SetTracked@?$MemPoolT@$0HI@@tinyxml2@@UEAAXXZ
CONST	ENDS
;	COMDAT ??_7XMLElement@tinyxml2@@6B@
CONST	SEGMENT
??_7XMLElement@tinyxml2@@6B@ DQ FLAT:??_R4XMLElement@tinyxml2@@6B@ ; tinyxml2::XMLElement::`vftable'
	DQ	FLAT:?ToElement@XMLElement@tinyxml2@@UEBAPEBV12@XZ
	DQ	FLAT:?ToElement@XMLElement@tinyxml2@@UEAAPEAV12@XZ
	DQ	FLAT:?ToText@XMLNode@tinyxml2@@UEBAPEBVXMLText@2@XZ
	DQ	FLAT:?ToText@XMLNode@tinyxml2@@UEAAPEAVXMLText@2@XZ
	DQ	FLAT:?ToComment@XMLNode@tinyxml2@@UEBAPEBVXMLComment@2@XZ
	DQ	FLAT:?ToComment@XMLNode@tinyxml2@@UEAAPEAVXMLComment@2@XZ
	DQ	FLAT:?ToDocument@XMLNode@tinyxml2@@UEBAPEBVXMLDocument@2@XZ
	DQ	FLAT:?ToDocument@XMLNode@tinyxml2@@UEAAPEAVXMLDocument@2@XZ
	DQ	FLAT:?ToDeclaration@XMLNode@tinyxml2@@UEBAPEBVXMLDeclaration@2@XZ
	DQ	FLAT:?ToDeclaration@XMLNode@tinyxml2@@UEAAPEAVXMLDeclaration@2@XZ
	DQ	FLAT:?ToUnknown@XMLNode@tinyxml2@@UEBAPEBVXMLUnknown@2@XZ
	DQ	FLAT:?ToUnknown@XMLNode@tinyxml2@@UEAAPEAVXMLUnknown@2@XZ
	DQ	FLAT:?ShallowClone@XMLElement@tinyxml2@@UEBAPEAVXMLNode@2@PEAVXMLDocument@2@@Z
	DQ	FLAT:?ShallowEqual@XMLElement@tinyxml2@@UEBA_NPEBVXMLNode@2@@Z
	DQ	FLAT:?Accept@XMLElement@tinyxml2@@UEBA_NPEAVXMLVisitor@2@@Z
	DQ	FLAT:??_EXMLElement@tinyxml2@@EEAAPEAXI@Z
	DQ	FLAT:?ParseDeep@XMLElement@tinyxml2@@MEAAPEADPEADPEAVStrPair@2@PEAH@Z
CONST	ENDS
;	COMDAT ??_7XMLAttribute@tinyxml2@@6B@
CONST	SEGMENT
??_7XMLAttribute@tinyxml2@@6B@ DQ FLAT:??_R4XMLAttribute@tinyxml2@@6B@ ; tinyxml2::XMLAttribute::`vftable'
	DQ	FLAT:??_EXMLAttribute@tinyxml2@@EEAAPEAXI@Z
CONST	ENDS
;	COMDAT ??_7XMLUnknown@tinyxml2@@6B@
CONST	SEGMENT
??_7XMLUnknown@tinyxml2@@6B@ DQ FLAT:??_R4XMLUnknown@tinyxml2@@6B@ ; tinyxml2::XMLUnknown::`vftable'
	DQ	FLAT:?ToElement@XMLNode@tinyxml2@@UEBAPEBVXMLElement@2@XZ
	DQ	FLAT:?ToElement@XMLNode@tinyxml2@@UEAAPEAVXMLElement@2@XZ
	DQ	FLAT:?ToText@XMLNode@tinyxml2@@UEBAPEBVXMLText@2@XZ
	DQ	FLAT:?ToText@XMLNode@tinyxml2@@UEAAPEAVXMLText@2@XZ
	DQ	FLAT:?ToComment@XMLNode@tinyxml2@@UEBAPEBVXMLComment@2@XZ
	DQ	FLAT:?ToComment@XMLNode@tinyxml2@@UEAAPEAVXMLComment@2@XZ
	DQ	FLAT:?ToDocument@XMLNode@tinyxml2@@UEBAPEBVXMLDocument@2@XZ
	DQ	FLAT:?ToDocument@XMLNode@tinyxml2@@UEAAPEAVXMLDocument@2@XZ
	DQ	FLAT:?ToDeclaration@XMLNode@tinyxml2@@UEBAPEBVXMLDeclaration@2@XZ
	DQ	FLAT:?ToDeclaration@XMLNode@tinyxml2@@UEAAPEAVXMLDeclaration@2@XZ
	DQ	FLAT:?ToUnknown@XMLUnknown@tinyxml2@@UEBAPEBV12@XZ
	DQ	FLAT:?ToUnknown@XMLUnknown@tinyxml2@@UEAAPEAV12@XZ
	DQ	FLAT:?ShallowClone@XMLUnknown@tinyxml2@@UEBAPEAVXMLNode@2@PEAVXMLDocument@2@@Z
	DQ	FLAT:?ShallowEqual@XMLUnknown@tinyxml2@@UEBA_NPEBVXMLNode@2@@Z
	DQ	FLAT:?Accept@XMLUnknown@tinyxml2@@UEBA_NPEAVXMLVisitor@2@@Z
	DQ	FLAT:??_EXMLUnknown@tinyxml2@@MEAAPEAXI@Z
	DQ	FLAT:?ParseDeep@XMLUnknown@tinyxml2@@MEAAPEADPEADPEAVStrPair@2@PEAH@Z
CONST	ENDS
;	COMDAT ??_7XMLDeclaration@tinyxml2@@6B@
CONST	SEGMENT
??_7XMLDeclaration@tinyxml2@@6B@ DQ FLAT:??_R4XMLDeclaration@tinyxml2@@6B@ ; tinyxml2::XMLDeclaration::`vftable'
	DQ	FLAT:?ToElement@XMLNode@tinyxml2@@UEBAPEBVXMLElement@2@XZ
	DQ	FLAT:?ToElement@XMLNode@tinyxml2@@UEAAPEAVXMLElement@2@XZ
	DQ	FLAT:?ToText@XMLNode@tinyxml2@@UEBAPEBVXMLText@2@XZ
	DQ	FLAT:?ToText@XMLNode@tinyxml2@@UEAAPEAVXMLText@2@XZ
	DQ	FLAT:?ToComment@XMLNode@tinyxml2@@UEBAPEBVXMLComment@2@XZ
	DQ	FLAT:?ToComment@XMLNode@tinyxml2@@UEAAPEAVXMLComment@2@XZ
	DQ	FLAT:?ToDocument@XMLNode@tinyxml2@@UEBAPEBVXMLDocument@2@XZ
	DQ	FLAT:?ToDocument@XMLNode@tinyxml2@@UEAAPEAVXMLDocument@2@XZ
	DQ	FLAT:?ToDeclaration@XMLDeclaration@tinyxml2@@UEBAPEBV12@XZ
	DQ	FLAT:?ToDeclaration@XMLDeclaration@tinyxml2@@UEAAPEAV12@XZ
	DQ	FLAT:?ToUnknown@XMLNode@tinyxml2@@UEBAPEBVXMLUnknown@2@XZ
	DQ	FLAT:?ToUnknown@XMLNode@tinyxml2@@UEAAPEAVXMLUnknown@2@XZ
	DQ	FLAT:?ShallowClone@XMLDeclaration@tinyxml2@@UEBAPEAVXMLNode@2@PEAVXMLDocument@2@@Z
	DQ	FLAT:?ShallowEqual@XMLDeclaration@tinyxml2@@UEBA_NPEBVXMLNode@2@@Z
	DQ	FLAT:?Accept@XMLDeclaration@tinyxml2@@UEBA_NPEAVXMLVisitor@2@@Z
	DQ	FLAT:??_EXMLDeclaration@tinyxml2@@MEAAPEAXI@Z
	DQ	FLAT:?ParseDeep@XMLDeclaration@tinyxml2@@MEAAPEADPEADPEAVStrPair@2@PEAH@Z
CONST	ENDS
;	COMDAT ??_7XMLComment@tinyxml2@@6B@
CONST	SEGMENT
??_7XMLComment@tinyxml2@@6B@ DQ FLAT:??_R4XMLComment@tinyxml2@@6B@ ; tinyxml2::XMLComment::`vftable'
	DQ	FLAT:?ToElement@XMLNode@tinyxml2@@UEBAPEBVXMLElement@2@XZ
	DQ	FLAT:?ToElement@XMLNode@tinyxml2@@UEAAPEAVXMLElement@2@XZ
	DQ	FLAT:?ToText@XMLNode@tinyxml2@@UEBAPEBVXMLText@2@XZ
	DQ	FLAT:?ToText@XMLNode@tinyxml2@@UEAAPEAVXMLText@2@XZ
	DQ	FLAT:?ToComment@XMLComment@tinyxml2@@UEBAPEBV12@XZ
	DQ	FLAT:?ToComment@XMLComment@tinyxml2@@UEAAPEAV12@XZ
	DQ	FLAT:?ToDocument@XMLNode@tinyxml2@@UEBAPEBVXMLDocument@2@XZ
	DQ	FLAT:?ToDocument@XMLNode@tinyxml2@@UEAAPEAVXMLDocument@2@XZ
	DQ	FLAT:?ToDeclaration@XMLNode@tinyxml2@@UEBAPEBVXMLDeclaration@2@XZ
	DQ	FLAT:?ToDeclaration@XMLNode@tinyxml2@@UEAAPEAVXMLDeclaration@2@XZ
	DQ	FLAT:?ToUnknown@XMLNode@tinyxml2@@UEBAPEBVXMLUnknown@2@XZ
	DQ	FLAT:?ToUnknown@XMLNode@tinyxml2@@UEAAPEAVXMLUnknown@2@XZ
	DQ	FLAT:?ShallowClone@XMLComment@tinyxml2@@UEBAPEAVXMLNode@2@PEAVXMLDocument@2@@Z
	DQ	FLAT:?ShallowEqual@XMLComment@tinyxml2@@UEBA_NPEBVXMLNode@2@@Z
	DQ	FLAT:?Accept@XMLComment@tinyxml2@@UEBA_NPEAVXMLVisitor@2@@Z
	DQ	FLAT:??_EXMLComment@tinyxml2@@MEAAPEAXI@Z
	DQ	FLAT:?ParseDeep@XMLComment@tinyxml2@@MEAAPEADPEADPEAVStrPair@2@PEAH@Z
CONST	ENDS
;	COMDAT ??_7XMLText@tinyxml2@@6B@
CONST	SEGMENT
??_7XMLText@tinyxml2@@6B@ DQ FLAT:??_R4XMLText@tinyxml2@@6B@ ; tinyxml2::XMLText::`vftable'
	DQ	FLAT:?ToElement@XMLNode@tinyxml2@@UEBAPEBVXMLElement@2@XZ
	DQ	FLAT:?ToElement@XMLNode@tinyxml2@@UEAAPEAVXMLElement@2@XZ
	DQ	FLAT:?ToText@XMLText@tinyxml2@@UEBAPEBV12@XZ
	DQ	FLAT:?ToText@XMLText@tinyxml2@@UEAAPEAV12@XZ
	DQ	FLAT:?ToComment@XMLNode@tinyxml2@@UEBAPEBVXMLComment@2@XZ
	DQ	FLAT:?ToComment@XMLNode@tinyxml2@@UEAAPEAVXMLComment@2@XZ
	DQ	FLAT:?ToDocument@XMLNode@tinyxml2@@UEBAPEBVXMLDocument@2@XZ
	DQ	FLAT:?ToDocument@XMLNode@tinyxml2@@UEAAPEAVXMLDocument@2@XZ
	DQ	FLAT:?ToDeclaration@XMLNode@tinyxml2@@UEBAPEBVXMLDeclaration@2@XZ
	DQ	FLAT:?ToDeclaration@XMLNode@tinyxml2@@UEAAPEAVXMLDeclaration@2@XZ
	DQ	FLAT:?ToUnknown@XMLNode@tinyxml2@@UEBAPEBVXMLUnknown@2@XZ
	DQ	FLAT:?ToUnknown@XMLNode@tinyxml2@@UEAAPEAVXMLUnknown@2@XZ
	DQ	FLAT:?ShallowClone@XMLText@tinyxml2@@UEBAPEAVXMLNode@2@PEAVXMLDocument@2@@Z
	DQ	FLAT:?ShallowEqual@XMLText@tinyxml2@@UEBA_NPEBVXMLNode@2@@Z
	DQ	FLAT:?Accept@XMLText@tinyxml2@@UEBA_NPEAVXMLVisitor@2@@Z
	DQ	FLAT:??_EXMLText@tinyxml2@@MEAAPEAXI@Z
	DQ	FLAT:?ParseDeep@XMLText@tinyxml2@@MEAAPEADPEADPEAVStrPair@2@PEAH@Z
CONST	ENDS
;	COMDAT ??_7XMLNode@tinyxml2@@6B@
CONST	SEGMENT
??_7XMLNode@tinyxml2@@6B@ DQ FLAT:??_R4XMLNode@tinyxml2@@6B@ ; tinyxml2::XMLNode::`vftable'
	DQ	FLAT:?ToElement@XMLNode@tinyxml2@@UEBAPEBVXMLElement@2@XZ
	DQ	FLAT:?ToElement@XMLNode@tinyxml2@@UEAAPEAVXMLElement@2@XZ
	DQ	FLAT:?ToText@XMLNode@tinyxml2@@UEBAPEBVXMLText@2@XZ
	DQ	FLAT:?ToText@XMLNode@tinyxml2@@UEAAPEAVXMLText@2@XZ
	DQ	FLAT:?ToComment@XMLNode@tinyxml2@@UEBAPEBVXMLComment@2@XZ
	DQ	FLAT:?ToComment@XMLNode@tinyxml2@@UEAAPEAVXMLComment@2@XZ
	DQ	FLAT:?ToDocument@XMLNode@tinyxml2@@UEBAPEBVXMLDocument@2@XZ
	DQ	FLAT:?ToDocument@XMLNode@tinyxml2@@UEAAPEAVXMLDocument@2@XZ
	DQ	FLAT:?ToDeclaration@XMLNode@tinyxml2@@UEBAPEBVXMLDeclaration@2@XZ
	DQ	FLAT:?ToDeclaration@XMLNode@tinyxml2@@UEAAPEAVXMLDeclaration@2@XZ
	DQ	FLAT:?ToUnknown@XMLNode@tinyxml2@@UEBAPEBVXMLUnknown@2@XZ
	DQ	FLAT:?ToUnknown@XMLNode@tinyxml2@@UEAAPEAVXMLUnknown@2@XZ
	DQ	FLAT:_purecall
	DQ	FLAT:_purecall
	DQ	FLAT:_purecall
	DQ	FLAT:??_EXMLNode@tinyxml2@@MEAAPEAXI@Z
	DQ	FLAT:?ParseDeep@XMLNode@tinyxml2@@MEAAPEADPEADPEAVStrPair@2@PEAH@Z
CONST	ENDS
;	COMDAT ??_7XMLVisitor@tinyxml2@@6B@
CONST	SEGMENT
??_7XMLVisitor@tinyxml2@@6B@ DQ FLAT:??_R4XMLVisitor@tinyxml2@@6B@ ; tinyxml2::XMLVisitor::`vftable'
	DQ	FLAT:??_EXMLVisitor@tinyxml2@@UEAAPEAXI@Z
	DQ	FLAT:?VisitEnter@XMLVisitor@tinyxml2@@UEAA_NAEBVXMLElement@2@PEBVXMLAttribute@2@@Z
	DQ	FLAT:?VisitEnter@XMLVisitor@tinyxml2@@UEAA_NAEBVXMLDocument@2@@Z
	DQ	FLAT:?VisitExit@XMLVisitor@tinyxml2@@UEAA_NAEBVXMLElement@2@@Z
	DQ	FLAT:?VisitExit@XMLVisitor@tinyxml2@@UEAA_NAEBVXMLDocument@2@@Z
	DQ	FLAT:?Visit@XMLVisitor@tinyxml2@@UEAA_NAEBVXMLUnknown@2@@Z
	DQ	FLAT:?Visit@XMLVisitor@tinyxml2@@UEAA_NAEBVXMLComment@2@@Z
	DQ	FLAT:?Visit@XMLVisitor@tinyxml2@@UEAA_NAEBVXMLText@2@@Z
	DQ	FLAT:?Visit@XMLVisitor@tinyxml2@@UEAA_NAEBVXMLDeclaration@2@@Z
CONST	ENDS
;	COMDAT ??_7MemPool@tinyxml2@@6B@
CONST	SEGMENT
??_7MemPool@tinyxml2@@6B@ DQ FLAT:??_R4MemPool@tinyxml2@@6B@ ; tinyxml2::MemPool::`vftable'
	DQ	FLAT:??_EMemPool@tinyxml2@@UEAAPEAXI@Z
	DQ	FLAT:_purecall
	DQ	FLAT:_purecall
	DQ	FLAT:_purecall
	DQ	FLAT:_purecall
CONST	ENDS
;	COMDAT xdata
xdata	SEGMENT
$unwind$?callfopen@tinyxml2@@YAPEAU_iobuf@@PEBD0@Z DD 020601H
	DD	030023206H
xdata	ENDS
;	COMDAT xdata
xdata	SEGMENT
$unwind$??$CreateUnlinkedNode@VXMLElement@tinyxml2@@$0HI@@XMLDocument@tinyxml2@@AEAAPEAVXMLElement@1@AEAV?$MemPoolT@$0HI@@1@@Z DD 060f01H
	DD	07640fH
	DD	06340fH
	DD	0700b320fH
xdata	ENDS
;	COMDAT xdata
xdata	SEGMENT
$unwind$??$CreateUnlinkedNode@VXMLUnknown@tinyxml2@@$0GI@@XMLDocument@tinyxml2@@AEAAPEAVXMLUnknown@1@AEAV?$MemPoolT@$0GI@@1@@Z DD 060f01H
	DD	07640fH
	DD	06340fH
	DD	0700b320fH
xdata	ENDS
;	COMDAT xdata
xdata	SEGMENT
$unwind$??$CreateUnlinkedNode@VXMLText@tinyxml2@@$0HA@@XMLDocument@tinyxml2@@AEAAPEAVXMLText@1@AEAV?$MemPoolT@$0HA@@1@@Z DD 060f01H
	DD	07640fH
	DD	06340fH
	DD	0700b320fH
xdata	ENDS
;	COMDAT xdata
xdata	SEGMENT
$unwind$??$CreateUnlinkedNode@VXMLComment@tinyxml2@@$0GI@@XMLDocument@tinyxml2@@AEAAPEAVXMLComment@1@AEAV?$MemPoolT@$0GI@@1@@Z DD 060f01H
	DD	07640fH
	DD	06340fH
	DD	0700b320fH
xdata	ENDS
;	COMDAT xdata
xdata	SEGMENT
$unwind$??$CreateUnlinkedNode@VXMLDeclaration@tinyxml2@@$0GI@@XMLDocument@tinyxml2@@AEAAPEAVXMLDeclaration@1@AEAV?$MemPoolT@$0GI@@1@@Z DD 060f01H
	DD	07640fH
	DD	06340fH
	DD	0700b320fH
xdata	ENDS
;	COMDAT xdata
xdata	SEGMENT
$unwind$?TIXML_VSNPRINTF@@YAHPEAD_KPEBD0@Z DD 081401H
	DD	0c6414H
	DD	0b5414H
	DD	0a3414H
	DD	070107214H
xdata	ENDS
;	COMDAT xdata
xdata	SEGMENT
$unwind$?TIXML_SNPRINTF@@YAHPEAD_KPEBDZZ DD 051201H
	DD	0700e8212H
	DD	0500c600dH
	DD	0300bH
xdata	ENDS
;	COMDAT xdata
xdata	SEGMENT
$unwind$??_GXMLPrinter@tinyxml2@@UEAAPEAXI@Z DD 040a01H
	DD	06340aH
	DD	07006320aH
xdata	ENDS
;	COMDAT xdata
xdata	SEGMENT
$chain$2$?EnsureCapacity@?$DynArray@D$0BE@@tinyxml2@@AEAAXH@Z DD 021H
	DD	imagerel $LN6
	DD	imagerel $LN6+14
	DD	imagerel $unwind$?EnsureCapacity@?$DynArray@D$0BE@@tinyxml2@@AEAAXH@Z
xdata	ENDS
;	COMDAT xdata
xdata	SEGMENT
$chain$1$?EnsureCapacity@?$DynArray@D$0BE@@tinyxml2@@AEAAXH@Z DD 040a21H
	DD	07740aH
	DD	066405H
	DD	imagerel $LN6
	DD	imagerel $LN6+14
	DD	imagerel $unwind$?EnsureCapacity@?$DynArray@D$0BE@@tinyxml2@@AEAAXH@Z
xdata	ENDS
;	COMDAT xdata
xdata	SEGMENT
$unwind$?EnsureCapacity@?$DynArray@D$0BE@@tinyxml2@@AEAAXH@Z DD 020601H
	DD	030023206H
xdata	ENDS
;	COMDAT xdata
xdata	SEGMENT
$chain$1$?PushArr@?$DynArray@D$0BE@@tinyxml2@@QEAAPEADH@Z DD 021H
	DD	imagerel $LN9
	DD	imagerel $LN9+31
	DD	imagerel $unwind$?PushArr@?$DynArray@D$0BE@@tinyxml2@@QEAAPEADH@Z
xdata	ENDS
;	COMDAT xdata
xdata	SEGMENT
$chain$0$?PushArr@?$DynArray@D$0BE@@tinyxml2@@QEAAPEADH@Z DD 020521H
	DD	065405H
	DD	imagerel $LN9
	DD	imagerel $LN9+31
	DD	imagerel $unwind$?PushArr@?$DynArray@D$0BE@@tinyxml2@@QEAAPEADH@Z
xdata	ENDS
;	COMDAT xdata
xdata	SEGMENT
$unwind$?PushArr@?$DynArray@D$0BE@@tinyxml2@@QEAAPEADH@Z DD 060f01H
	DD	08640fH
	DD	07340fH
	DD	0700b320fH
xdata	ENDS
;	COMDAT xdata
xdata	SEGMENT
$chain$1$?Push@?$DynArray@D$0BE@@tinyxml2@@QEAAXD@Z DD 021H
	DD	imagerel $LN9
	DD	imagerel $LN9+32
	DD	imagerel $unwind$?Push@?$DynArray@D$0BE@@tinyxml2@@QEAAXD@Z
xdata	ENDS
;	COMDAT xdata
xdata	SEGMENT
$chain$0$?Push@?$DynArray@D$0BE@@tinyxml2@@QEAAXD@Z DD 020521H
	DD	065405H
	DD	imagerel $LN9
	DD	imagerel $LN9+32
	DD	imagerel $unwind$?Push@?$DynArray@D$0BE@@tinyxml2@@QEAAXD@Z
xdata	ENDS
;	COMDAT xdata
xdata	SEGMENT
$unwind$?Push@?$DynArray@D$0BE@@tinyxml2@@QEAAXD@Z DD 060f01H
	DD	08640fH
	DD	07340fH
	DD	0700b320fH
xdata	ENDS
;	COMDAT xdata
xdata	SEGMENT
$chain$7$?PrintString@XMLPrinter@tinyxml2@@AEAAXPEBD_N@Z DD 021H
	DD	imagerel $LN38
	DD	imagerel $LN38+31
	DD	imagerel $unwind$?PrintString@XMLPrinter@tinyxml2@@AEAAXPEBD_N@Z
xdata	ENDS
;	COMDAT xdata
xdata	SEGMENT
$chain$6$?PrintString@XMLPrinter@tinyxml2@@AEAAXPEBD_N@Z DD 021H
	DD	imagerel $LN38+31
	DD	imagerel $LN38+58
	DD	imagerel $chain$0$?PrintString@XMLPrinter@tinyxml2@@AEAAXPEBD_N@Z
xdata	ENDS
;	COMDAT xdata
xdata	SEGMENT
$chain$5$?PrintString@XMLPrinter@tinyxml2@@AEAAXPEBD_N@Z DD 020021H
	DD	04f400H
	DD	imagerel $LN38+31
	DD	imagerel $LN38+58
	DD	imagerel $chain$0$?PrintString@XMLPrinter@tinyxml2@@AEAAXPEBD_N@Z
xdata	ENDS
;	COMDAT xdata
xdata	SEGMENT
$chain$4$?PrintString@XMLPrinter@tinyxml2@@AEAAXPEBD_N@Z DD 082221H
	DD	04f422H
	DD	05d416H
	DD	0cc40aH
	DD	0b7405H
	DD	imagerel $LN38+31
	DD	imagerel $LN38+58
	DD	imagerel $chain$0$?PrintString@XMLPrinter@tinyxml2@@AEAAXPEBD_N@Z
xdata	ENDS
;	COMDAT xdata
xdata	SEGMENT
$chain$0$?PrintString@XMLPrinter@tinyxml2@@AEAAXPEBD_N@Z DD 020521H
	DD	0a5405H
	DD	imagerel $LN38
	DD	imagerel $LN38+31
	DD	imagerel $unwind$?PrintString@XMLPrinter@tinyxml2@@AEAAXPEBD_N@Z
xdata	ENDS
;	COMDAT xdata
xdata	SEGMENT
$unwind$?PrintString@XMLPrinter@tinyxml2@@AEAAXPEBD_N@Z DD 040901H
	DD	0e0055209H
	DD	030026003H
xdata	ENDS
;	COMDAT xdata
xdata	SEGMENT
$unwind$?PrepareForNewNode@XMLPrinter@tinyxml2@@AEAAX_N@Z DD 040a01H
	DD	06340aH
	DD	07006320aH
xdata	ENDS
;	COMDAT xdata
xdata	SEGMENT
$chain$2$?EnsureCapacity@?$DynArray@PEBD$09@tinyxml2@@AEAAXH@Z DD 021H
	DD	imagerel $LN6
	DD	imagerel $LN6+21
	DD	imagerel $unwind$?EnsureCapacity@?$DynArray@PEBD$09@tinyxml2@@AEAAXH@Z
xdata	ENDS
;	COMDAT xdata
xdata	SEGMENT
$chain$1$?EnsureCapacity@?$DynArray@PEBD$09@tinyxml2@@AEAAXH@Z DD 040a21H
	DD	07740aH
	DD	066405H
	DD	imagerel $LN6
	DD	imagerel $LN6+21
	DD	imagerel $unwind$?EnsureCapacity@?$DynArray@PEBD$09@tinyxml2@@AEAAXH@Z
xdata	ENDS
;	COMDAT xdata
xdata	SEGMENT
$unwind$?EnsureCapacity@?$DynArray@PEBD$09@tinyxml2@@AEAAXH@Z DD 020601H
	DD	030023206H
xdata	ENDS
;	COMDAT xdata
xdata	SEGMENT
$chain$1$?Push@?$DynArray@PEBD$09@tinyxml2@@QEAAXPEBD@Z DD 021H
	DD	imagerel $LN9
	DD	imagerel $LN9+32
	DD	imagerel $unwind$?Push@?$DynArray@PEBD$09@tinyxml2@@QEAAXPEBD@Z
xdata	ENDS
;	COMDAT xdata
xdata	SEGMENT
$chain$0$?Push@?$DynArray@PEBD$09@tinyxml2@@QEAAXPEBD@Z DD 020521H
	DD	065405H
	DD	imagerel $LN9
	DD	imagerel $LN9+32
	DD	imagerel $unwind$?Push@?$DynArray@PEBD$09@tinyxml2@@QEAAXPEBD@Z
xdata	ENDS
;	COMDAT xdata
xdata	SEGMENT
$unwind$?Push@?$DynArray@PEBD$09@tinyxml2@@QEAAXPEBD@Z DD 060f01H
	DD	08640fH
	DD	07340fH
	DD	0700b320fH
xdata	ENDS
;	COMDAT xdata
xdata	SEGMENT
$unwind$?Putc@XMLPrinter@tinyxml2@@MEAAXD@Z DD 020601H
	DD	030023206H
xdata	ENDS
;	COMDAT xdata
xdata	SEGMENT
$unwind$?Write@XMLPrinter@tinyxml2@@MEAAXPEBD_K@Z DD 063e01H
	DD	06343eH
	DD	07640aH
	DD	07006320aH
xdata	ENDS
;	COMDAT xdata
xdata	SEGMENT
$unwind$?Print@XMLPrinter@tinyxml2@@MEAAXPEBDZZ DD 051701H
	DD	070138217H
	DD	050116012H
	DD	03010H
xdata	ENDS
;	COMDAT xdata
xdata	SEGMENT
$chain$1$?PrintSpace@XMLPrinter@tinyxml2@@MEAAXH@Z DD 021H
	DD	imagerel $LN14
	DD	imagerel $LN14+9
	DD	imagerel $unwind$?PrintSpace@XMLPrinter@tinyxml2@@MEAAXH@Z
xdata	ENDS
;	COMDAT xdata
xdata	SEGMENT
$chain$0$?PrintSpace@XMLPrinter@tinyxml2@@MEAAXH@Z DD 020521H
	DD	067405H
	DD	imagerel $LN14
	DD	imagerel $LN14+9
	DD	imagerel $unwind$?PrintSpace@XMLPrinter@tinyxml2@@MEAAXH@Z
xdata	ENDS
;	COMDAT xdata
xdata	SEGMENT
$unwind$?PrintSpace@XMLPrinter@tinyxml2@@MEAAXH@Z DD 020901H
	DD	030053209H
xdata	ENDS
;	COMDAT xdata
xdata	SEGMENT
$unwind$?Visit@XMLPrinter@tinyxml2@@UEAA_NAEBVXMLUnknown@2@@Z DD 060f01H
	DD	07640fH
	DD	06340fH
	DD	0700b320fH
xdata	ENDS
;	COMDAT xdata
xdata	SEGMENT
$unwind$?Visit@XMLPrinter@tinyxml2@@UEAA_NAEBVXMLDeclaration@2@@Z DD 040a01H
	DD	06340aH
	DD	07006320aH
xdata	ENDS
;	COMDAT xdata
xdata	SEGMENT
$unwind$?Visit@XMLPrinter@tinyxml2@@UEAA_NAEBVXMLComment@2@@Z DD 060f01H
	DD	07640fH
	DD	06340fH
	DD	0700b320fH
xdata	ENDS
;	COMDAT xdata
xdata	SEGMENT
$unwind$?Visit@XMLPrinter@tinyxml2@@UEAA_NAEBVXMLText@2@@Z DD 060f01H
	DD	07640fH
	DD	06340fH
	DD	0700b320fH
xdata	ENDS
;	COMDAT xdata
xdata	SEGMENT
$unwind$?VisitExit@XMLPrinter@tinyxml2@@UEAA_NAEBVXMLElement@2@@Z DD 040a01H
	DD	06340aH
	DD	07006320aH
xdata	ENDS
;	COMDAT xdata
xdata	SEGMENT
$unwind$?VisitEnter@XMLPrinter@tinyxml2@@UEAA_NAEBVXMLElement@2@PEBVXMLAttribute@2@@Z DD 0a1801H
	DD	0a6418H
	DD	095418H
	DD	083418H
	DD	0f0143218H
	DD	07010e012H
xdata	ENDS
;	COMDAT xdata
xdata	SEGMENT
$unwind$?VisitEnter@XMLPrinter@tinyxml2@@UEAA_NAEBVXMLDocument@2@@Z DD 010401H
	DD	04204H
xdata	ENDS
;	COMDAT xdata
xdata	SEGMENT
$unwind$?PushUnknown@XMLPrinter@tinyxml2@@QEAAXPEBD@Z DD 060f01H
	DD	07640fH
	DD	06340fH
	DD	0700b320fH
xdata	ENDS
;	COMDAT xdata
xdata	SEGMENT
$unwind$?PushDeclaration@XMLPrinter@tinyxml2@@QEAAXPEBD@Z DD 060f01H
	DD	07640fH
	DD	06340fH
	DD	0700b320fH
xdata	ENDS
;	COMDAT xdata
xdata	SEGMENT
$unwind$?PushComment@XMLPrinter@tinyxml2@@QEAAXPEBD@Z DD 060f01H
	DD	07640fH
	DD	06340fH
	DD	0700b320fH
xdata	ENDS
;	COMDAT xdata
xdata	SEGMENT
$unwind$?PushText@XMLPrinter@tinyxml2@@QEAAXN@Z DD 031b19H
	DD	0200109H
	DD	03002H
	DD	imagerel __GSHandlerCheck
	DD	0f0H
xdata	ENDS
;	COMDAT xdata
xdata	SEGMENT
$unwind$?PushText@XMLPrinter@tinyxml2@@QEAAXM@Z DD 031b19H
	DD	0200109H
	DD	03002H
	DD	imagerel __GSHandlerCheck
	DD	0f0H
xdata	ENDS
;	COMDAT xdata
xdata	SEGMENT
$unwind$?PushText@XMLPrinter@tinyxml2@@QEAAX_N@Z DD 031b19H
	DD	0200109H
	DD	03002H
	DD	imagerel __GSHandlerCheck
	DD	0f0H
xdata	ENDS
;	COMDAT xdata
xdata	SEGMENT
$unwind$?PushText@XMLPrinter@tinyxml2@@QEAAX_K@Z DD 031b19H
	DD	0200109H
	DD	03002H
	DD	imagerel __GSHandlerCheck
	DD	0f0H
xdata	ENDS
;	COMDAT xdata
xdata	SEGMENT
$unwind$?PushText@XMLPrinter@tinyxml2@@QEAAX_J@Z DD 031b19H
	DD	0200109H
	DD	03002H
	DD	imagerel __GSHandlerCheck
	DD	0f0H
xdata	ENDS
;	COMDAT xdata
xdata	SEGMENT
$unwind$?PushText@XMLPrinter@tinyxml2@@QEAAXI@Z DD 031b19H
	DD	0200109H
	DD	03002H
	DD	imagerel __GSHandlerCheck
	DD	0f0H
xdata	ENDS
;	COMDAT xdata
xdata	SEGMENT
$unwind$?PushText@XMLPrinter@tinyxml2@@QEAAXH@Z DD 031b19H
	DD	0200109H
	DD	03002H
	DD	imagerel __GSHandlerCheck
	DD	0f0H
xdata	ENDS
;	COMDAT xdata
xdata	SEGMENT
$unwind$?PushText@XMLPrinter@tinyxml2@@QEAAXPEBD_N@Z DD 060f01H
	DD	07640fH
	DD	06340fH
	DD	0700b320fH
xdata	ENDS
;	COMDAT xdata
xdata	SEGMENT
$unwind$?CloseElement@XMLPrinter@tinyxml2@@UEAAX_N@Z DD 060f01H
	DD	07640fH
	DD	06340fH
	DD	0700b320fH
xdata	ENDS
;	COMDAT xdata
xdata	SEGMENT
$unwind$?PushAttribute@XMLPrinter@tinyxml2@@QEAAXPEBDN@Z DD 051f19H
	DD	025340dH
	DD	020010dH
	DD	07006H
	DD	imagerel __GSHandlerCheck
	DD	0f0H
xdata	ENDS
;	COMDAT xdata
xdata	SEGMENT
$unwind$?PushAttribute@XMLPrinter@tinyxml2@@QEAAXPEBD_N@Z DD 051f19H
	DD	025340dH
	DD	020010dH
	DD	07006H
	DD	imagerel __GSHandlerCheck
	DD	0f0H
xdata	ENDS
;	COMDAT xdata
xdata	SEGMENT
$unwind$?PushAttribute@XMLPrinter@tinyxml2@@QEAAXPEBD_K@Z DD 051f19H
	DD	025340dH
	DD	020010dH
	DD	07006H
	DD	imagerel __GSHandlerCheck
	DD	0f0H
xdata	ENDS
;	COMDAT xdata
xdata	SEGMENT
$unwind$?PushAttribute@XMLPrinter@tinyxml2@@QEAAXPEBD_J@Z DD 051f19H
	DD	025340dH
	DD	020010dH
	DD	07006H
	DD	imagerel __GSHandlerCheck
	DD	0f0H
xdata	ENDS
;	COMDAT xdata
xdata	SEGMENT
$unwind$?PushAttribute@XMLPrinter@tinyxml2@@QEAAXPEBDI@Z DD 051f19H
	DD	025340dH
	DD	020010dH
	DD	07006H
	DD	imagerel __GSHandlerCheck
	DD	0f0H
xdata	ENDS
;	COMDAT xdata
xdata	SEGMENT
$unwind$?PushAttribute@XMLPrinter@tinyxml2@@QEAAXPEBDH@Z DD 051f19H
	DD	025340dH
	DD	020010dH
	DD	07006H
	DD	imagerel __GSHandlerCheck
	DD	0f0H
xdata	ENDS
;	COMDAT xdata
xdata	SEGMENT
$unwind$?PushAttribute@XMLPrinter@tinyxml2@@QEAAXPEBD0@Z DD 060f01H
	DD	07640fH
	DD	06340fH
	DD	0700b320fH
xdata	ENDS
;	COMDAT xdata
xdata	SEGMENT
$chain$3$?OpenElement@XMLPrinter@tinyxml2@@QEAAXPEBD_N@Z DD 021H
	DD	imagerel $LN26
	DD	imagerel $LN26+23
	DD	imagerel $unwind$?OpenElement@XMLPrinter@tinyxml2@@QEAAXPEBD_N@Z
xdata	ENDS
;	COMDAT xdata
xdata	SEGMENT
$chain$2$?OpenElement@XMLPrinter@tinyxml2@@QEAAXPEBD_N@Z DD 021H
	DD	imagerel $LN26+23
	DD	imagerel $LN26+116
	DD	imagerel $chain$0$?OpenElement@XMLPrinter@tinyxml2@@QEAAXPEBD_N@Z
xdata	ENDS
;	COMDAT xdata
xdata	SEGMENT
$chain$1$?OpenElement@XMLPrinter@tinyxml2@@QEAAXPEBD_N@Z DD 020521H
	DD	065405H
	DD	imagerel $LN26+23
	DD	imagerel $LN26+116
	DD	imagerel $chain$0$?OpenElement@XMLPrinter@tinyxml2@@QEAAXPEBD_N@Z
xdata	ENDS
;	COMDAT xdata
xdata	SEGMENT
$chain$0$?OpenElement@XMLPrinter@tinyxml2@@QEAAXPEBD_N@Z DD 020521H
	DD	07e405H
	DD	imagerel $LN26
	DD	imagerel $LN26+23
	DD	imagerel $unwind$?OpenElement@XMLPrinter@tinyxml2@@QEAAXPEBD_N@Z
xdata	ENDS
;	COMDAT xdata
xdata	SEGMENT
$unwind$?OpenElement@XMLPrinter@tinyxml2@@QEAAXPEBD_N@Z DD 060f01H
	DD	09640fH
	DD	08340fH
	DD	0700b320fH
xdata	ENDS
;	COMDAT xdata
xdata	SEGMENT
$unwind$?PushHeader@XMLPrinter@tinyxml2@@QEAAX_N0@Z DD 040a01H
	DD	06340aH
	DD	07006320aH
xdata	ENDS
;	COMDAT xdata
xdata	SEGMENT
$unwind$??1XMLPrinter@tinyxml2@@UEAA@XZ DD 020601H
	DD	030023206H
xdata	ENDS
;	COMDAT xdata
xdata	SEGMENT
$chain$1$??0XMLPrinter@tinyxml2@@QEAA@PEAU_iobuf@@_NH@Z DD 021H
	DD	imagerel $LN98
	DD	imagerel $LN98+300
	DD	imagerel $unwind$??0XMLPrinter@tinyxml2@@QEAA@PEAU_iobuf@@_NH@Z
xdata	ENDS
;	COMDAT xdata
xdata	SEGMENT
$chain$0$??0XMLPrinter@tinyxml2@@QEAA@PEAU_iobuf@@_NH@Z DD 020521H
	DD	066405H
	DD	imagerel $LN98
	DD	imagerel $LN98+300
	DD	imagerel $unwind$??0XMLPrinter@tinyxml2@@QEAA@PEAU_iobuf@@_NH@Z
xdata	ENDS
;	COMDAT xdata
xdata	SEGMENT
$unwind$??0XMLPrinter@tinyxml2@@QEAA@PEAU_iobuf@@_NH@Z DD 040a01H
	DD	07340aH
	DD	07006320aH
xdata	ENDS
;	COMDAT xdata
xdata	SEGMENT
$unwind$??_GXMLDocument@tinyxml2@@UEAAPEAXI@Z DD 040a01H
	DD	06340aH
	DD	07006320aH
xdata	ENDS
;	COMDAT xdata
xdata	SEGMENT
$unwind$??0DepthTracker@XMLDocument@tinyxml2@@QEAA@PEAV12@@Z DD 020601H
	DD	030023206H
xdata	ENDS
;	COMDAT xdata
xdata	SEGMENT
$unwind$?SetError@XMLDocument@tinyxml2@@AEAAXW4XMLError@2@HPEBDZZ DD 071101H
	DD	0f00d8211H
	DD	07009e00bH
	DD	050076008H
	DD	03006H
xdata	ENDS
;	COMDAT xdata
xdata	SEGMENT
$unwind$?Parse@XMLDocument@tinyxml2@@AEAAXXZ DD 060f01H
	DD	07640fH
	DD	06340fH
	DD	0700b320fH
xdata	ENDS
;	COMDAT xdata
xdata	SEGMENT
$unwind$??_G?$MemPoolT@$0GI@@tinyxml2@@UEAAPEAXI@Z DD 040a01H
	DD	06340aH
	DD	07006320aH
xdata	ENDS
;	COMDAT xdata
xdata	SEGMENT
$chain$2$?EnsureCapacity@?$DynArray@PEAUBlock@?$MemPoolT@$0GI@@tinyxml2@@$09@tinyxml2@@AEAAXH@Z DD 021H
	DD	imagerel $LN6
	DD	imagerel $LN6+21
	DD	imagerel $unwind$?EnsureCapacity@?$DynArray@PEAUBlock@?$MemPoolT@$0GI@@tinyxml2@@$09@tinyxml2@@AEAAXH@Z
xdata	ENDS
;	COMDAT xdata
xdata	SEGMENT
$chain$1$?EnsureCapacity@?$DynArray@PEAUBlock@?$MemPoolT@$0GI@@tinyxml2@@$09@tinyxml2@@AEAAXH@Z DD 040a21H
	DD	07740aH
	DD	066405H
	DD	imagerel $LN6
	DD	imagerel $LN6+21
	DD	imagerel $unwind$?EnsureCapacity@?$DynArray@PEAUBlock@?$MemPoolT@$0GI@@tinyxml2@@$09@tinyxml2@@AEAAXH@Z
xdata	ENDS
;	COMDAT xdata
xdata	SEGMENT
$unwind$?EnsureCapacity@?$DynArray@PEAUBlock@?$MemPoolT@$0GI@@tinyxml2@@$09@tinyxml2@@AEAAXH@Z DD 020601H
	DD	030023206H
xdata	ENDS
;	COMDAT xdata
xdata	SEGMENT
$chain$1$?Push@?$DynArray@PEAUBlock@?$MemPoolT@$0GI@@tinyxml2@@$09@tinyxml2@@QEAAXPEAUBlock@?$MemPoolT@$0GI@@2@@Z DD 021H
	DD	imagerel $LN9
	DD	imagerel $LN9+32
	DD	imagerel $unwind$?Push@?$DynArray@PEAUBlock@?$MemPoolT@$0GI@@tinyxml2@@$09@tinyxml2@@QEAAXPEAUBlock@?$MemPoolT@$0GI@@2@@Z
xdata	ENDS
;	COMDAT xdata
xdata	SEGMENT
$chain$0$?Push@?$DynArray@PEAUBlock@?$MemPoolT@$0GI@@tinyxml2@@$09@tinyxml2@@QEAAXPEAUBlock@?$MemPoolT@$0GI@@2@@Z DD 020521H
	DD	065405H
	DD	imagerel $LN9
	DD	imagerel $LN9+32
	DD	imagerel $unwind$?Push@?$DynArray@PEAUBlock@?$MemPoolT@$0GI@@tinyxml2@@$09@tinyxml2@@QEAAXPEAUBlock@?$MemPoolT@$0GI@@2@@Z
xdata	ENDS
;	COMDAT xdata
xdata	SEGMENT
$unwind$?Push@?$DynArray@PEAUBlock@?$MemPoolT@$0GI@@tinyxml2@@$09@tinyxml2@@QEAAXPEAUBlock@?$MemPoolT@$0GI@@2@@Z DD 060f01H
	DD	08640fH
	DD	07340fH
	DD	0700b320fH
xdata	ENDS
;	COMDAT xdata
xdata	SEGMENT
$chain$3$?Alloc@?$MemPoolT@$0GI@@tinyxml2@@UEAAPEAXXZ DD 021H
	DD	imagerel $LN24
	DD	imagerel $LN24+31
	DD	imagerel $unwind$?Alloc@?$MemPoolT@$0GI@@tinyxml2@@UEAAPEAXXZ
xdata	ENDS
;	COMDAT xdata
xdata	SEGMENT
$chain$2$?Alloc@?$MemPoolT@$0GI@@tinyxml2@@UEAAPEAXXZ DD 021H
	DD	imagerel $LN24+31
	DD	imagerel $LN24+80
	DD	imagerel $chain$0$?Alloc@?$MemPoolT@$0GI@@tinyxml2@@UEAAPEAXXZ
xdata	ENDS
;	COMDAT xdata
xdata	SEGMENT
$chain$1$?Alloc@?$MemPoolT@$0GI@@tinyxml2@@UEAAPEAXXZ DD 020521H
	DD	065405H
	DD	imagerel $LN24+31
	DD	imagerel $LN24+80
	DD	imagerel $chain$0$?Alloc@?$MemPoolT@$0GI@@tinyxml2@@UEAAPEAXXZ
xdata	ENDS
;	COMDAT xdata
xdata	SEGMENT
$chain$0$?Alloc@?$MemPoolT@$0GI@@tinyxml2@@UEAAPEAXXZ DD 020521H
	DD	076405H
	DD	imagerel $LN24
	DD	imagerel $LN24+31
	DD	imagerel $unwind$?Alloc@?$MemPoolT@$0GI@@tinyxml2@@UEAAPEAXXZ
xdata	ENDS
;	COMDAT xdata
xdata	SEGMENT
$unwind$?Alloc@?$MemPoolT@$0GI@@tinyxml2@@UEAAPEAXXZ DD 040a01H
	DD	08340aH
	DD	07006320aH
xdata	ENDS
;	COMDAT xdata
xdata	SEGMENT
$unwind$?Clear@?$MemPoolT@$0GI@@tinyxml2@@QEAAXXZ DD 020601H
	DD	030023206H
xdata	ENDS
;	COMDAT xdata
xdata	SEGMENT
$unwind$??1?$MemPoolT@$0GI@@tinyxml2@@UEAA@XZ DD 020601H
	DD	030023206H
xdata	ENDS
;	COMDAT xdata
xdata	SEGMENT
$unwind$??_G?$MemPoolT@$0HA@@tinyxml2@@UEAAPEAXI@Z DD 040a01H
	DD	06340aH
	DD	07006320aH
xdata	ENDS
;	COMDAT xdata
xdata	SEGMENT
$chain$2$?EnsureCapacity@?$DynArray@PEAUBlock@?$MemPoolT@$0HA@@tinyxml2@@$09@tinyxml2@@AEAAXH@Z DD 021H
	DD	imagerel $LN6
	DD	imagerel $LN6+21
	DD	imagerel $unwind$?EnsureCapacity@?$DynArray@PEAUBlock@?$MemPoolT@$0HA@@tinyxml2@@$09@tinyxml2@@AEAAXH@Z
xdata	ENDS
;	COMDAT xdata
xdata	SEGMENT
$chain$1$?EnsureCapacity@?$DynArray@PEAUBlock@?$MemPoolT@$0HA@@tinyxml2@@$09@tinyxml2@@AEAAXH@Z DD 040a21H
	DD	07740aH
	DD	066405H
	DD	imagerel $LN6
	DD	imagerel $LN6+21
	DD	imagerel $unwind$?EnsureCapacity@?$DynArray@PEAUBlock@?$MemPoolT@$0HA@@tinyxml2@@$09@tinyxml2@@AEAAXH@Z
xdata	ENDS
;	COMDAT xdata
xdata	SEGMENT
$unwind$?EnsureCapacity@?$DynArray@PEAUBlock@?$MemPoolT@$0HA@@tinyxml2@@$09@tinyxml2@@AEAAXH@Z DD 020601H
	DD	030023206H
xdata	ENDS
;	COMDAT xdata
xdata	SEGMENT
$chain$1$?Push@?$DynArray@PEAUBlock@?$MemPoolT@$0HA@@tinyxml2@@$09@tinyxml2@@QEAAXPEAUBlock@?$MemPoolT@$0HA@@2@@Z DD 021H
	DD	imagerel $LN9
	DD	imagerel $LN9+32
	DD	imagerel $unwind$?Push@?$DynArray@PEAUBlock@?$MemPoolT@$0HA@@tinyxml2@@$09@tinyxml2@@QEAAXPEAUBlock@?$MemPoolT@$0HA@@2@@Z
xdata	ENDS
;	COMDAT xdata
xdata	SEGMENT
$chain$0$?Push@?$DynArray@PEAUBlock@?$MemPoolT@$0HA@@tinyxml2@@$09@tinyxml2@@QEAAXPEAUBlock@?$MemPoolT@$0HA@@2@@Z DD 020521H
	DD	065405H
	DD	imagerel $LN9
	DD	imagerel $LN9+32
	DD	imagerel $unwind$?Push@?$DynArray@PEAUBlock@?$MemPoolT@$0HA@@tinyxml2@@$09@tinyxml2@@QEAAXPEAUBlock@?$MemPoolT@$0HA@@2@@Z
xdata	ENDS
;	COMDAT xdata
xdata	SEGMENT
$unwind$?Push@?$DynArray@PEAUBlock@?$MemPoolT@$0HA@@tinyxml2@@$09@tinyxml2@@QEAAXPEAUBlock@?$MemPoolT@$0HA@@2@@Z DD 060f01H
	DD	08640fH
	DD	07340fH
	DD	0700b320fH
xdata	ENDS
;	COMDAT xdata
xdata	SEGMENT
$chain$3$?Alloc@?$MemPoolT@$0HA@@tinyxml2@@UEAAPEAXXZ DD 021H
	DD	imagerel $LN24
	DD	imagerel $LN24+31
	DD	imagerel $unwind$?Alloc@?$MemPoolT@$0HA@@tinyxml2@@UEAAPEAXXZ
xdata	ENDS
;	COMDAT xdata
xdata	SEGMENT
$chain$2$?Alloc@?$MemPoolT@$0HA@@tinyxml2@@UEAAPEAXXZ DD 021H
	DD	imagerel $LN24+31
	DD	imagerel $LN24+80
	DD	imagerel $chain$0$?Alloc@?$MemPoolT@$0HA@@tinyxml2@@UEAAPEAXXZ
xdata	ENDS
;	COMDAT xdata
xdata	SEGMENT
$chain$1$?Alloc@?$MemPoolT@$0HA@@tinyxml2@@UEAAPEAXXZ DD 020521H
	DD	065405H
	DD	imagerel $LN24+31
	DD	imagerel $LN24+80
	DD	imagerel $chain$0$?Alloc@?$MemPoolT@$0HA@@tinyxml2@@UEAAPEAXXZ
xdata	ENDS
;	COMDAT xdata
xdata	SEGMENT
$chain$0$?Alloc@?$MemPoolT@$0HA@@tinyxml2@@UEAAPEAXXZ DD 020521H
	DD	076405H
	DD	imagerel $LN24
	DD	imagerel $LN24+31
	DD	imagerel $unwind$?Alloc@?$MemPoolT@$0HA@@tinyxml2@@UEAAPEAXXZ
xdata	ENDS
;	COMDAT xdata
xdata	SEGMENT
$unwind$?Alloc@?$MemPoolT@$0HA@@tinyxml2@@UEAAPEAXXZ DD 040a01H
	DD	08340aH
	DD	07006320aH
xdata	ENDS
;	COMDAT xdata
xdata	SEGMENT
$unwind$?Clear@?$MemPoolT@$0HA@@tinyxml2@@QEAAXXZ DD 020601H
	DD	030023206H
xdata	ENDS
;	COMDAT xdata
xdata	SEGMENT
$unwind$??1?$MemPoolT@$0HA@@tinyxml2@@UEAA@XZ DD 020601H
	DD	030023206H
xdata	ENDS
;	COMDAT xdata
xdata	SEGMENT
$unwind$??_G?$MemPoolT@$0FA@@tinyxml2@@UEAAPEAXI@Z DD 040a01H
	DD	06340aH
	DD	07006320aH
xdata	ENDS
;	COMDAT xdata
xdata	SEGMENT
$chain$2$?EnsureCapacity@?$DynArray@PEAUBlock@?$MemPoolT@$0FA@@tinyxml2@@$09@tinyxml2@@AEAAXH@Z DD 021H
	DD	imagerel $LN6
	DD	imagerel $LN6+21
	DD	imagerel $unwind$?EnsureCapacity@?$DynArray@PEAUBlock@?$MemPoolT@$0FA@@tinyxml2@@$09@tinyxml2@@AEAAXH@Z
xdata	ENDS
;	COMDAT xdata
xdata	SEGMENT
$chain$1$?EnsureCapacity@?$DynArray@PEAUBlock@?$MemPoolT@$0FA@@tinyxml2@@$09@tinyxml2@@AEAAXH@Z DD 040a21H
	DD	07740aH
	DD	066405H
	DD	imagerel $LN6
	DD	imagerel $LN6+21
	DD	imagerel $unwind$?EnsureCapacity@?$DynArray@PEAUBlock@?$MemPoolT@$0FA@@tinyxml2@@$09@tinyxml2@@AEAAXH@Z
xdata	ENDS
;	COMDAT xdata
xdata	SEGMENT
$unwind$?EnsureCapacity@?$DynArray@PEAUBlock@?$MemPoolT@$0FA@@tinyxml2@@$09@tinyxml2@@AEAAXH@Z DD 020601H
	DD	030023206H
xdata	ENDS
;	COMDAT xdata
xdata	SEGMENT
$chain$1$?Push@?$DynArray@PEAUBlock@?$MemPoolT@$0FA@@tinyxml2@@$09@tinyxml2@@QEAAXPEAUBlock@?$MemPoolT@$0FA@@2@@Z DD 021H
	DD	imagerel $LN9
	DD	imagerel $LN9+32
	DD	imagerel $unwind$?Push@?$DynArray@PEAUBlock@?$MemPoolT@$0FA@@tinyxml2@@$09@tinyxml2@@QEAAXPEAUBlock@?$MemPoolT@$0FA@@2@@Z
xdata	ENDS
;	COMDAT xdata
xdata	SEGMENT
$chain$0$?Push@?$DynArray@PEAUBlock@?$MemPoolT@$0FA@@tinyxml2@@$09@tinyxml2@@QEAAXPEAUBlock@?$MemPoolT@$0FA@@2@@Z DD 020521H
	DD	065405H
	DD	imagerel $LN9
	DD	imagerel $LN9+32
	DD	imagerel $unwind$?Push@?$DynArray@PEAUBlock@?$MemPoolT@$0FA@@tinyxml2@@$09@tinyxml2@@QEAAXPEAUBlock@?$MemPoolT@$0FA@@2@@Z
xdata	ENDS
;	COMDAT xdata
xdata	SEGMENT
$unwind$?Push@?$DynArray@PEAUBlock@?$MemPoolT@$0FA@@tinyxml2@@$09@tinyxml2@@QEAAXPEAUBlock@?$MemPoolT@$0FA@@2@@Z DD 060f01H
	DD	08640fH
	DD	07340fH
	DD	0700b320fH
xdata	ENDS
;	COMDAT xdata
xdata	SEGMENT
$chain$3$?Alloc@?$MemPoolT@$0FA@@tinyxml2@@UEAAPEAXXZ DD 021H
	DD	imagerel $LN24
	DD	imagerel $LN24+31
	DD	imagerel $unwind$?Alloc@?$MemPoolT@$0FA@@tinyxml2@@UEAAPEAXXZ
xdata	ENDS
;	COMDAT xdata
xdata	SEGMENT
$chain$2$?Alloc@?$MemPoolT@$0FA@@tinyxml2@@UEAAPEAXXZ DD 021H
	DD	imagerel $LN24+31
	DD	imagerel $LN24+80
	DD	imagerel $chain$0$?Alloc@?$MemPoolT@$0FA@@tinyxml2@@UEAAPEAXXZ
xdata	ENDS
;	COMDAT xdata
xdata	SEGMENT
$chain$1$?Alloc@?$MemPoolT@$0FA@@tinyxml2@@UEAAPEAXXZ DD 020521H
	DD	065405H
	DD	imagerel $LN24+31
	DD	imagerel $LN24+80
	DD	imagerel $chain$0$?Alloc@?$MemPoolT@$0FA@@tinyxml2@@UEAAPEAXXZ
xdata	ENDS
;	COMDAT xdata
xdata	SEGMENT
$chain$0$?Alloc@?$MemPoolT@$0FA@@tinyxml2@@UEAAPEAXXZ DD 020521H
	DD	076405H
	DD	imagerel $LN24
	DD	imagerel $LN24+31
	DD	imagerel $unwind$?Alloc@?$MemPoolT@$0FA@@tinyxml2@@UEAAPEAXXZ
xdata	ENDS
;	COMDAT xdata
xdata	SEGMENT
$unwind$?Alloc@?$MemPoolT@$0FA@@tinyxml2@@UEAAPEAXXZ DD 040a01H
	DD	08340aH
	DD	07006320aH
xdata	ENDS
;	COMDAT xdata
xdata	SEGMENT
$unwind$?Clear@?$MemPoolT@$0FA@@tinyxml2@@QEAAXXZ DD 020601H
	DD	030023206H
xdata	ENDS
;	COMDAT xdata
xdata	SEGMENT
$unwind$??1?$MemPoolT@$0FA@@tinyxml2@@UEAA@XZ DD 020601H
	DD	030023206H
xdata	ENDS
;	COMDAT xdata
xdata	SEGMENT
$unwind$??_G?$MemPoolT@$0HI@@tinyxml2@@UEAAPEAXI@Z DD 040a01H
	DD	06340aH
	DD	07006320aH
xdata	ENDS
;	COMDAT xdata
xdata	SEGMENT
$chain$2$?EnsureCapacity@?$DynArray@PEAUBlock@?$MemPoolT@$0HI@@tinyxml2@@$09@tinyxml2@@AEAAXH@Z DD 021H
	DD	imagerel $LN6
	DD	imagerel $LN6+21
	DD	imagerel $unwind$?EnsureCapacity@?$DynArray@PEAUBlock@?$MemPoolT@$0HI@@tinyxml2@@$09@tinyxml2@@AEAAXH@Z
xdata	ENDS
;	COMDAT xdata
xdata	SEGMENT
$chain$1$?EnsureCapacity@?$DynArray@PEAUBlock@?$MemPoolT@$0HI@@tinyxml2@@$09@tinyxml2@@AEAAXH@Z DD 040a21H
	DD	07740aH
	DD	066405H
	DD	imagerel $LN6
	DD	imagerel $LN6+21
	DD	imagerel $unwind$?EnsureCapacity@?$DynArray@PEAUBlock@?$MemPoolT@$0HI@@tinyxml2@@$09@tinyxml2@@AEAAXH@Z
xdata	ENDS
;	COMDAT xdata
xdata	SEGMENT
$unwind$?EnsureCapacity@?$DynArray@PEAUBlock@?$MemPoolT@$0HI@@tinyxml2@@$09@tinyxml2@@AEAAXH@Z DD 020601H
	DD	030023206H
xdata	ENDS
;	COMDAT xdata
xdata	SEGMENT
$chain$1$?Push@?$DynArray@PEAUBlock@?$MemPoolT@$0HI@@tinyxml2@@$09@tinyxml2@@QEAAXPEAUBlock@?$MemPoolT@$0HI@@2@@Z DD 021H
	DD	imagerel $LN9
	DD	imagerel $LN9+32
	DD	imagerel $unwind$?Push@?$DynArray@PEAUBlock@?$MemPoolT@$0HI@@tinyxml2@@$09@tinyxml2@@QEAAXPEAUBlock@?$MemPoolT@$0HI@@2@@Z
xdata	ENDS
;	COMDAT xdata
xdata	SEGMENT
$chain$0$?Push@?$DynArray@PEAUBlock@?$MemPoolT@$0HI@@tinyxml2@@$09@tinyxml2@@QEAAXPEAUBlock@?$MemPoolT@$0HI@@2@@Z DD 020521H
	DD	065405H
	DD	imagerel $LN9
	DD	imagerel $LN9+32
	DD	imagerel $unwind$?Push@?$DynArray@PEAUBlock@?$MemPoolT@$0HI@@tinyxml2@@$09@tinyxml2@@QEAAXPEAUBlock@?$MemPoolT@$0HI@@2@@Z
xdata	ENDS
;	COMDAT xdata
xdata	SEGMENT
$unwind$?Push@?$DynArray@PEAUBlock@?$MemPoolT@$0HI@@tinyxml2@@$09@tinyxml2@@QEAAXPEAUBlock@?$MemPoolT@$0HI@@2@@Z DD 060f01H
	DD	08640fH
	DD	07340fH
	DD	0700b320fH
xdata	ENDS
;	COMDAT xdata
xdata	SEGMENT
$chain$3$?Alloc@?$MemPoolT@$0HI@@tinyxml2@@UEAAPEAXXZ DD 021H
	DD	imagerel $LN24
	DD	imagerel $LN24+31
	DD	imagerel $unwind$?Alloc@?$MemPoolT@$0HI@@tinyxml2@@UEAAPEAXXZ
xdata	ENDS
;	COMDAT xdata
xdata	SEGMENT
$chain$2$?Alloc@?$MemPoolT@$0HI@@tinyxml2@@UEAAPEAXXZ DD 021H
	DD	imagerel $LN24+31
	DD	imagerel $LN24+80
	DD	imagerel $chain$0$?Alloc@?$MemPoolT@$0HI@@tinyxml2@@UEAAPEAXXZ
xdata	ENDS
;	COMDAT xdata
xdata	SEGMENT
$chain$1$?Alloc@?$MemPoolT@$0HI@@tinyxml2@@UEAAPEAXXZ DD 020521H
	DD	065405H
	DD	imagerel $LN24+31
	DD	imagerel $LN24+80
	DD	imagerel $chain$0$?Alloc@?$MemPoolT@$0HI@@tinyxml2@@UEAAPEAXXZ
xdata	ENDS
;	COMDAT xdata
xdata	SEGMENT
$chain$0$?Alloc@?$MemPoolT@$0HI@@tinyxml2@@UEAAPEAXXZ DD 020521H
	DD	076405H
	DD	imagerel $LN24
	DD	imagerel $LN24+31
	DD	imagerel $unwind$?Alloc@?$MemPoolT@$0HI@@tinyxml2@@UEAAPEAXXZ
xdata	ENDS
;	COMDAT xdata
xdata	SEGMENT
$unwind$?Alloc@?$MemPoolT@$0HI@@tinyxml2@@UEAAPEAXXZ DD 040a01H
	DD	08340aH
	DD	07006320aH
xdata	ENDS
;	COMDAT xdata
xdata	SEGMENT
$unwind$?Clear@?$MemPoolT@$0HI@@tinyxml2@@QEAAXXZ DD 020601H
	DD	030023206H
xdata	ENDS
;	COMDAT xdata
xdata	SEGMENT
$unwind$??1?$MemPoolT@$0HI@@tinyxml2@@UEAA@XZ DD 020601H
	DD	030023206H
xdata	ENDS
;	COMDAT xdata
xdata	SEGMENT
$chain$2$?EnsureCapacity@?$DynArray@PEAVXMLNode@tinyxml2@@$09@tinyxml2@@AEAAXH@Z DD 021H
	DD	imagerel $LN6
	DD	imagerel $LN6+21
	DD	imagerel $unwind$?EnsureCapacity@?$DynArray@PEAVXMLNode@tinyxml2@@$09@tinyxml2@@AEAAXH@Z
xdata	ENDS
;	COMDAT xdata
xdata	SEGMENT
$chain$1$?EnsureCapacity@?$DynArray@PEAVXMLNode@tinyxml2@@$09@tinyxml2@@AEAAXH@Z DD 040a21H
	DD	07740aH
	DD	066405H
	DD	imagerel $LN6
	DD	imagerel $LN6+21
	DD	imagerel $unwind$?EnsureCapacity@?$DynArray@PEAVXMLNode@tinyxml2@@$09@tinyxml2@@AEAAXH@Z
xdata	ENDS
;	COMDAT xdata
xdata	SEGMENT
$unwind$?EnsureCapacity@?$DynArray@PEAVXMLNode@tinyxml2@@$09@tinyxml2@@AEAAXH@Z DD 020601H
	DD	030023206H
xdata	ENDS
;	COMDAT xdata
xdata	SEGMENT
$chain$1$?Push@?$DynArray@PEAVXMLNode@tinyxml2@@$09@tinyxml2@@QEAAXPEAVXMLNode@2@@Z DD 021H
	DD	imagerel $LN9
	DD	imagerel $LN9+32
	DD	imagerel $unwind$?Push@?$DynArray@PEAVXMLNode@tinyxml2@@$09@tinyxml2@@QEAAXPEAVXMLNode@2@@Z
xdata	ENDS
;	COMDAT xdata
xdata	SEGMENT
$chain$0$?Push@?$DynArray@PEAVXMLNode@tinyxml2@@$09@tinyxml2@@QEAAXPEAVXMLNode@2@@Z DD 020521H
	DD	065405H
	DD	imagerel $LN9
	DD	imagerel $LN9+32
	DD	imagerel $unwind$?Push@?$DynArray@PEAVXMLNode@tinyxml2@@$09@tinyxml2@@QEAAXPEAVXMLNode@2@@Z
xdata	ENDS
;	COMDAT xdata
xdata	SEGMENT
$unwind$?Push@?$DynArray@PEAVXMLNode@tinyxml2@@$09@tinyxml2@@QEAAXPEAVXMLNode@2@@Z DD 060f01H
	DD	08640fH
	DD	07340fH
	DD	0700b320fH
xdata	ENDS
;	COMDAT xdata
xdata	SEGMENT
$unwind$?Identify@XMLDocument@tinyxml2@@QEAAPEADPEADPEAPEAVXMLNode@2@@Z DD 0a1801H
	DD	0a6418H
	DD	095418H
	DD	083418H
	DD	0f0143218H
	DD	07010e012H
xdata	ENDS
;	COMDAT xdata
xdata	SEGMENT
$chain$2$?DeepCopy@XMLDocument@tinyxml2@@QEBAXPEAV12@@Z DD 021H
	DD	imagerel $LN18
	DD	imagerel $LN18+42
	DD	imagerel $unwind$?DeepCopy@XMLDocument@tinyxml2@@QEBAXPEAV12@@Z
xdata	ENDS
;	COMDAT xdata
xdata	SEGMENT
$chain$1$?DeepCopy@XMLDocument@tinyxml2@@QEBAXPEAV12@@Z DD 040a21H
	DD	07540aH
	DD	063405H
	DD	imagerel $LN18
	DD	imagerel $LN18+42
	DD	imagerel $unwind$?DeepCopy@XMLDocument@tinyxml2@@QEBAXPEAV12@@Z
xdata	ENDS
;	COMDAT xdata
xdata	SEGMENT
$unwind$?DeepCopy@XMLDocument@tinyxml2@@QEBAXPEAV12@@Z DD 041301H
	DD	086413H
	DD	0700f3213H
xdata	ENDS
;	COMDAT xdata
xdata	SEGMENT
$chain$2$?Clear@XMLDocument@tinyxml2@@QEAAXXZ DD 021H
	DD	imagerel $LN39
	DD	imagerel $LN39+32
	DD	imagerel $unwind$?Clear@XMLDocument@tinyxml2@@QEAAXXZ
xdata	ENDS
;	COMDAT xdata
xdata	SEGMENT
$chain$1$?Clear@XMLDocument@tinyxml2@@QEAAXXZ DD 040a21H
	DD	07740aH
	DD	063405H
	DD	imagerel $LN39
	DD	imagerel $LN39+32
	DD	imagerel $unwind$?Clear@XMLDocument@tinyxml2@@QEAAXXZ
xdata	ENDS
;	COMDAT xdata
xdata	SEGMENT
$unwind$?Clear@XMLDocument@tinyxml2@@QEAAXXZ DD 040a01H
	DD	08540aH
	DD	06006320aH
xdata	ENDS
;	COMDAT xdata
xdata	SEGMENT
$unwind$?PrintError@XMLDocument@tinyxml2@@QEBAXXZ DD 010401H
	DD	04204H
xdata	ENDS
;	COMDAT xdata
xdata	SEGMENT
$unwind$?ClearError@XMLDocument@tinyxml2@@QEAAXXZ DD 040a01H
	DD	06340aH
	DD	07006320aH
xdata	ENDS
;	COMDAT xdata
xdata	SEGMENT
$unwind$?DeleteNode@XMLDocument@tinyxml2@@QEAAXPEAVXMLNode@2@@Z DD 020601H
	DD	030023206H
xdata	ENDS
;	COMDAT xdata
xdata	SEGMENT
$unwind$?NewUnknown@XMLDocument@tinyxml2@@QEAAPEAVXMLUnknown@2@PEBD@Z DD 081401H
	DD	086414H
	DD	075414H
	DD	063414H
	DD	070103214H
xdata	ENDS
;	COMDAT xdata
xdata	SEGMENT
$unwind$?NewDeclaration@XMLDocument@tinyxml2@@QEAAPEAVXMLDeclaration@2@PEBD@Z DD 081401H
	DD	086414H
	DD	075414H
	DD	063414H
	DD	070103214H
xdata	ENDS
;	COMDAT xdata
xdata	SEGMENT
$unwind$?NewText@XMLDocument@tinyxml2@@QEAAPEAVXMLText@2@PEBD@Z DD 081401H
	DD	086414H
	DD	075414H
	DD	063414H
	DD	070103214H
xdata	ENDS
;	COMDAT xdata
xdata	SEGMENT
$unwind$?NewComment@XMLDocument@tinyxml2@@QEAAPEAVXMLComment@2@PEBD@Z DD 081401H
	DD	086414H
	DD	075414H
	DD	063414H
	DD	070103214H
xdata	ENDS
;	COMDAT xdata
xdata	SEGMENT
$unwind$?NewElement@XMLDocument@tinyxml2@@QEAAPEAVXMLElement@2@PEBD@Z DD 081401H
	DD	086414H
	DD	075414H
	DD	063414H
	DD	070103214H
xdata	ENDS
;	COMDAT xdata
xdata	SEGMENT
$chain$1$?Accept@XMLDocument@tinyxml2@@UEBA_NPEAVXMLVisitor@2@@Z DD 021H
	DD	imagerel $LN16
	DD	imagerel $LN16+32
	DD	imagerel $unwind$?Accept@XMLDocument@tinyxml2@@UEBA_NPEAVXMLVisitor@2@@Z
xdata	ENDS
;	COMDAT xdata
xdata	SEGMENT
$chain$0$?Accept@XMLDocument@tinyxml2@@UEBA_NPEAVXMLVisitor@2@@Z DD 020521H
	DD	063405H
	DD	imagerel $LN16
	DD	imagerel $LN16+32
	DD	imagerel $unwind$?Accept@XMLDocument@tinyxml2@@UEBA_NPEAVXMLVisitor@2@@Z
xdata	ENDS
;	COMDAT xdata
xdata	SEGMENT
$unwind$?Accept@XMLDocument@tinyxml2@@UEBA_NPEAVXMLVisitor@2@@Z DD 040a01H
	DD	07640aH
	DD	07006320aH
xdata	ENDS
;	COMDAT xdata
xdata	SEGMENT
$unwind$?Print@XMLDocument@tinyxml2@@QEBAXPEAVXMLPrinter@2@@Z DD 031b19H
	DD	02e0109H
	DD	03002H
	DD	imagerel __GSHandlerCheck
	DD	0160H
xdata	ENDS
;	COMDAT xdata
xdata	SEGMENT
$unwind$?SaveFile@XMLDocument@tinyxml2@@QEAA?AW4XMLError@2@PEAU_iobuf@@_N@Z DD 092919H
	DD	0336417H
	DD	0325417H
	DD	0313417H
	DD	02e0117H
	DD	07010H
	DD	imagerel __GSHandlerCheck
	DD	0160H
xdata	ENDS
;	COMDAT xdata
xdata	SEGMENT
$chain$2$?SaveFile@XMLDocument@tinyxml2@@QEAA?AW4XMLError@2@PEBD_N@Z DD 021H
	DD	imagerel $LN42
	DD	imagerel $LN42+67
	DD	imagerel $unwind$?SaveFile@XMLDocument@tinyxml2@@QEAA?AW4XMLError@2@PEBD_N@Z
xdata	ENDS
;	COMDAT xdata
xdata	SEGMENT
$chain$1$?SaveFile@XMLDocument@tinyxml2@@QEAA?AW4XMLError@2@PEBD_N@Z DD 041721H
	DD	039e417H
	DD	0387408H
	DD	imagerel $LN42
	DD	imagerel $LN42+67
	DD	imagerel $unwind$?SaveFile@XMLDocument@tinyxml2@@QEAA?AW4XMLError@2@PEBD_N@Z
xdata	ENDS
;	COMDAT xdata
xdata	SEGMENT
$unwind$?SaveFile@XMLDocument@tinyxml2@@QEAA?AW4XMLError@2@PEBD_N@Z DD 051d19H
	DD	032010bH
	DD	050036004H
	DD	03002H
	DD	imagerel __GSHandlerCheck
	DD	0180H
xdata	ENDS
;	COMDAT xdata
xdata	SEGMENT
$chain$6$?LoadFile@XMLDocument@tinyxml2@@QEAA?AW4XMLError@2@PEAU_iobuf@@@Z DD 020021H
	DD	067400H
	DD	imagerel $LN13
	DD	imagerel $LN13+96
	DD	imagerel $unwind$?LoadFile@XMLDocument@tinyxml2@@QEAA?AW4XMLError@2@PEAU_iobuf@@@Z
xdata	ENDS
;	COMDAT xdata
xdata	SEGMENT
$chain$4$?LoadFile@XMLDocument@tinyxml2@@QEAA?AW4XMLError@2@PEAU_iobuf@@@Z DD 020021H
	DD	067400H
	DD	imagerel $LN13
	DD	imagerel $LN13+96
	DD	imagerel $unwind$?LoadFile@XMLDocument@tinyxml2@@QEAA?AW4XMLError@2@PEAU_iobuf@@@Z
xdata	ENDS
;	COMDAT xdata
xdata	SEGMENT
$chain$2$?LoadFile@XMLDocument@tinyxml2@@QEAA?AW4XMLError@2@PEAU_iobuf@@@Z DD 020021H
	DD	067400H
	DD	imagerel $LN13
	DD	imagerel $LN13+96
	DD	imagerel $unwind$?LoadFile@XMLDocument@tinyxml2@@QEAA?AW4XMLError@2@PEAU_iobuf@@@Z
xdata	ENDS
;	COMDAT xdata
xdata	SEGMENT
$chain$0$?LoadFile@XMLDocument@tinyxml2@@QEAA?AW4XMLError@2@PEAU_iobuf@@@Z DD 020521H
	DD	067405H
	DD	imagerel $LN13
	DD	imagerel $LN13+96
	DD	imagerel $unwind$?LoadFile@XMLDocument@tinyxml2@@QEAA?AW4XMLError@2@PEAU_iobuf@@@Z
xdata	ENDS
;	COMDAT xdata
xdata	SEGMENT
$unwind$?LoadFile@XMLDocument@tinyxml2@@QEAA?AW4XMLError@2@PEAU_iobuf@@@Z DD 040a01H
	DD	07340aH
	DD	06006320aH
xdata	ENDS
;	COMDAT xdata
xdata	SEGMENT
$chain$4$?LoadFile@XMLDocument@tinyxml2@@QEAA?AW4XMLError@2@PEBD@Z DD 020021H
	DD	087400H
	DD	imagerel $LN22
	DD	imagerel $LN22+53
	DD	imagerel $unwind$?LoadFile@XMLDocument@tinyxml2@@QEAA?AW4XMLError@2@PEBD@Z
xdata	ENDS
;	COMDAT xdata
xdata	SEGMENT
$chain$2$?LoadFile@XMLDocument@tinyxml2@@QEAA?AW4XMLError@2@PEBD@Z DD 020021H
	DD	087400H
	DD	imagerel $LN22
	DD	imagerel $LN22+53
	DD	imagerel $unwind$?LoadFile@XMLDocument@tinyxml2@@QEAA?AW4XMLError@2@PEBD@Z
xdata	ENDS
;	COMDAT xdata
xdata	SEGMENT
$chain$0$?LoadFile@XMLDocument@tinyxml2@@QEAA?AW4XMLError@2@PEBD@Z DD 020521H
	DD	087405H
	DD	imagerel $LN22
	DD	imagerel $LN22+53
	DD	imagerel $unwind$?LoadFile@XMLDocument@tinyxml2@@QEAA?AW4XMLError@2@PEBD@Z
xdata	ENDS
;	COMDAT xdata
xdata	SEGMENT
$unwind$?LoadFile@XMLDocument@tinyxml2@@QEAA?AW4XMLError@2@PEBD@Z DD 040a01H
	DD	0a340aH
	DD	06006520aH
xdata	ENDS
;	COMDAT xdata
xdata	SEGMENT
$unwind$?Parse@XMLDocument@tinyxml2@@QEAA?AW4XMLError@2@PEBD_K@Z DD 060f01H
	DD	07640fH
	DD	06340fH
	DD	0700b320fH
xdata	ENDS
;	COMDAT xdata
xdata	SEGMENT
$unwind$??1XMLDocument@tinyxml2@@UEAA@XZ DD 020601H
	DD	030023206H
xdata	ENDS
;	COMDAT xdata
xdata	SEGMENT
$chain$5$??_GXMLElement@tinyxml2@@EEAAPEAXI@Z DD 021H
	DD	imagerel $LN18
	DD	imagerel $LN18+6
	DD	imagerel $unwind$??_GXMLElement@tinyxml2@@EEAAPEAXI@Z
xdata	ENDS
;	COMDAT xdata
xdata	SEGMENT
$chain$4$??_GXMLElement@tinyxml2@@EEAAPEAXI@Z DD 021H
	DD	imagerel $LN18+6
	DD	imagerel $LN18+40
	DD	imagerel $chain$1$??_GXMLElement@tinyxml2@@EEAAPEAXI@Z
xdata	ENDS
;	COMDAT xdata
xdata	SEGMENT
$chain$3$??_GXMLElement@tinyxml2@@EEAAPEAXI@Z DD 040a21H
	DD	09740aH
	DD	086405H
	DD	imagerel $LN18+6
	DD	imagerel $LN18+40
	DD	imagerel $chain$1$??_GXMLElement@tinyxml2@@EEAAPEAXI@Z
xdata	ENDS
;	COMDAT xdata
xdata	SEGMENT
$chain$1$??_GXMLElement@tinyxml2@@EEAAPEAXI@Z DD 041821H
	DD	075418H
	DD	063405H
	DD	imagerel $LN18
	DD	imagerel $LN18+6
	DD	imagerel $unwind$??_GXMLElement@tinyxml2@@EEAAPEAXI@Z
xdata	ENDS
;	COMDAT xdata
xdata	SEGMENT
$unwind$??_GXMLElement@tinyxml2@@EEAAPEAXI@Z DD 020601H
	DD	0e0023206H
xdata	ENDS
;	COMDAT xdata
xdata	SEGMENT
$unwind$?CreateAttribute@XMLElement@tinyxml2@@AEAAPEAVXMLAttribute@2@XZ DD 040a01H
	DD	06340aH
	DD	07006320aH
xdata	ENDS
;	COMDAT xdata
xdata	SEGMENT
$chain$1$?DeleteAttribute@XMLElement@tinyxml2@@CAXPEAVXMLAttribute@2@@Z DD 021H
	DD	imagerel $LN6
	DD	imagerel $LN6+15
	DD	imagerel $unwind$?DeleteAttribute@XMLElement@tinyxml2@@CAXPEAVXMLAttribute@2@@Z
xdata	ENDS
;	COMDAT xdata
xdata	SEGMENT
$chain$0$?DeleteAttribute@XMLElement@tinyxml2@@CAXPEAVXMLAttribute@2@@Z DD 020521H
	DD	063405H
	DD	imagerel $LN6
	DD	imagerel $LN6+15
	DD	imagerel $unwind$?DeleteAttribute@XMLElement@tinyxml2@@CAXPEAVXMLAttribute@2@@Z
xdata	ENDS
;	COMDAT xdata
xdata	SEGMENT
$unwind$?DeleteAttribute@XMLElement@tinyxml2@@CAXPEAVXMLAttribute@2@@Z DD 020a01H
	DD	07006320aH
xdata	ENDS
;	COMDAT xdata
xdata	SEGMENT
$unwind$?ParseAttributes@XMLElement@tinyxml2@@AEAAPEADPEADPEAH@Z DD 0c1c01H
	DD	0f641cH
	DD	0e541cH
	DD	0c341cH
	DD	0f018521cH
	DD	0d014e016H
	DD	07010c012H
xdata	ENDS
;	COMDAT xdata
xdata	SEGMENT
$chain$1$?FindOrCreateAttribute@XMLElement@tinyxml2@@AEAAPEAVXMLAttribute@2@PEBD@Z DD 021H
	DD	imagerel $LN38
	DD	imagerel $LN38+109
	DD	imagerel $unwind$?FindOrCreateAttribute@XMLElement@tinyxml2@@AEAAPEAVXMLAttribute@2@PEBD@Z
xdata	ENDS
;	COMDAT xdata
xdata	SEGMENT
$chain$0$?FindOrCreateAttribute@XMLElement@tinyxml2@@AEAAPEAVXMLAttribute@2@PEBD@Z DD 020521H
	DD	08e405H
	DD	imagerel $LN38
	DD	imagerel $LN38+109
	DD	imagerel $unwind$?FindOrCreateAttribute@XMLElement@tinyxml2@@AEAAPEAVXMLAttribute@2@PEBD@Z
xdata	ENDS
;	COMDAT xdata
xdata	SEGMENT
$unwind$?FindOrCreateAttribute@XMLElement@tinyxml2@@AEAAPEAVXMLAttribute@2@PEBD@Z DD 081201H
	DD	0a5412H
	DD	093412H
	DD	0f00e3212H
	DD	0600b700cH
xdata	ENDS
;	COMDAT xdata
xdata	SEGMENT
$chain$2$??1XMLElement@tinyxml2@@EEAA@XZ DD 021H
	DD	imagerel $LN14
	DD	imagerel $LN14+33
	DD	imagerel $unwind$??1XMLElement@tinyxml2@@EEAA@XZ
xdata	ENDS
;	COMDAT xdata
xdata	SEGMENT
$chain$1$??1XMLElement@tinyxml2@@EEAA@XZ DD 040a21H
	DD	07740aH
	DD	066405H
	DD	imagerel $LN14
	DD	imagerel $LN14+33
	DD	imagerel $unwind$??1XMLElement@tinyxml2@@EEAA@XZ
xdata	ENDS
;	COMDAT xdata
xdata	SEGMENT
$unwind$??1XMLElement@tinyxml2@@EEAA@XZ DD 040b01H
	DD	08340bH
	DD	0e007320bH
xdata	ENDS
;	COMDAT xdata
xdata	SEGMENT
$unwind$?ParseDeep@XMLElement@tinyxml2@@MEAAPEADPEADPEAVStrPair@2@PEAH@Z DD 081401H
	DD	086414H
	DD	075414H
	DD	063414H
	DD	070103214H
xdata	ENDS
;	COMDAT xdata
xdata	SEGMENT
$unwind$?ShallowEqual@XMLElement@tinyxml2@@UEBA_NPEBVXMLNode@2@@Z DD 081401H
	DD	086414H
	DD	075414H
	DD	063414H
	DD	070103214H
xdata	ENDS
;	COMDAT xdata
xdata	SEGMENT
$chain$4$?ShallowClone@XMLElement@tinyxml2@@UEBAPEAVXMLNode@2@PEAVXMLDocument@2@@Z DD 021H
	DD	imagerel $LN64
	DD	imagerel $LN64+82
	DD	imagerel $unwind$?ShallowClone@XMLElement@tinyxml2@@UEBAPEAVXMLNode@2@PEAVXMLDocument@2@@Z
xdata	ENDS
;	COMDAT xdata
xdata	SEGMENT
$chain$3$?ShallowClone@XMLElement@tinyxml2@@UEBAPEAVXMLNode@2@PEAVXMLDocument@2@@Z DD 081b21H
	DD	04c41bH
	DD	0c7416H
	DD	0b640aH
	DD	0a5405H
	DD	imagerel $LN64
	DD	imagerel $LN64+82
	DD	imagerel $unwind$?ShallowClone@XMLElement@tinyxml2@@UEBAPEAVXMLNode@2@PEAVXMLDocument@2@@Z
xdata	ENDS
;	COMDAT xdata
xdata	SEGMENT
$unwind$?ShallowClone@XMLElement@tinyxml2@@UEBAPEAVXMLNode@2@PEAVXMLDocument@2@@Z DD 050c01H
	DD	0f008420cH
	DD	0d004e006H
	DD	03002H
xdata	ENDS
;	COMDAT xdata
xdata	SEGMENT
$unwind$?InsertNewUnknown@XMLElement@tinyxml2@@QEAAPEAVXMLUnknown@2@PEBD@Z DD 040a01H
	DD	06340aH
	DD	07006320aH
xdata	ENDS
;	COMDAT xdata
xdata	SEGMENT
$unwind$?InsertNewDeclaration@XMLElement@tinyxml2@@QEAAPEAVXMLDeclaration@2@PEBD@Z DD 040a01H
	DD	06340aH
	DD	07006320aH
xdata	ENDS
;	COMDAT xdata
xdata	SEGMENT
$unwind$?InsertNewText@XMLElement@tinyxml2@@QEAAPEAVXMLText@2@PEBD@Z DD 040a01H
	DD	06340aH
	DD	07006320aH
xdata	ENDS
;	COMDAT xdata
xdata	SEGMENT
$unwind$?InsertNewComment@XMLElement@tinyxml2@@QEAAPEAVXMLComment@2@PEBD@Z DD 040a01H
	DD	06340aH
	DD	07006320aH
xdata	ENDS
;	COMDAT xdata
xdata	SEGMENT
$unwind$?InsertNewChildElement@XMLElement@tinyxml2@@QEAAPEAV12@PEBD@Z DD 040a01H
	DD	06340aH
	DD	07006320aH
xdata	ENDS
;	COMDAT xdata
xdata	SEGMENT
$unwind$?FloatText@XMLElement@tinyxml2@@QEBAMM@Z DD 020601H
	DD	030023206H
xdata	ENDS
;	COMDAT xdata
xdata	SEGMENT
$unwind$?DoubleText@XMLElement@tinyxml2@@QEBANN@Z DD 020601H
	DD	030023206H
xdata	ENDS
;	COMDAT xdata
xdata	SEGMENT
$unwind$?BoolText@XMLElement@tinyxml2@@QEBA_N_N@Z DD 040a01H
	DD	06340aH
	DD	07006320aH
xdata	ENDS
;	COMDAT xdata
xdata	SEGMENT
$unwind$?Unsigned64Text@XMLElement@tinyxml2@@QEBA_K_K@Z DD 040a01H
	DD	07340aH
	DD	07006320aH
xdata	ENDS
;	COMDAT xdata
xdata	SEGMENT
$unwind$?Int64Text@XMLElement@tinyxml2@@QEBA_J_J@Z DD 040a01H
	DD	07340aH
	DD	07006320aH
xdata	ENDS
;	COMDAT xdata
xdata	SEGMENT
$unwind$?UnsignedText@XMLElement@tinyxml2@@QEBAII@Z DD 020601H
	DD	030023206H
xdata	ENDS
;	COMDAT xdata
xdata	SEGMENT
$unwind$?IntText@XMLElement@tinyxml2@@QEBAHH@Z DD 020601H
	DD	030023206H
xdata	ENDS
;	COMDAT xdata
xdata	SEGMENT
$chain$1$?QueryFloatText@XMLElement@tinyxml2@@QEBA?AW4XMLError@2@PEAM@Z DD 021H
	DD	imagerel $LN13
	DD	imagerel $LN13+43
	DD	imagerel $unwind$?QueryFloatText@XMLElement@tinyxml2@@QEBA?AW4XMLError@2@PEAM@Z
xdata	ENDS
;	COMDAT xdata
xdata	SEGMENT
$chain$0$?QueryFloatText@XMLElement@tinyxml2@@QEBA?AW4XMLError@2@PEAM@Z DD 020521H
	DD	066405H
	DD	imagerel $LN13
	DD	imagerel $LN13+43
	DD	imagerel $unwind$?QueryFloatText@XMLElement@tinyxml2@@QEBA?AW4XMLError@2@PEAM@Z
xdata	ENDS
;	COMDAT xdata
xdata	SEGMENT
$unwind$?QueryFloatText@XMLElement@tinyxml2@@QEBA?AW4XMLError@2@PEAM@Z DD 040a01H
	DD	07340aH
	DD	07006320aH
xdata	ENDS
;	COMDAT xdata
xdata	SEGMENT
$chain$1$?QueryDoubleText@XMLElement@tinyxml2@@QEBA?AW4XMLError@2@PEAN@Z DD 021H
	DD	imagerel $LN13
	DD	imagerel $LN13+43
	DD	imagerel $unwind$?QueryDoubleText@XMLElement@tinyxml2@@QEBA?AW4XMLError@2@PEAN@Z
xdata	ENDS
;	COMDAT xdata
xdata	SEGMENT
$chain$0$?QueryDoubleText@XMLElement@tinyxml2@@QEBA?AW4XMLError@2@PEAN@Z DD 020521H
	DD	066405H
	DD	imagerel $LN13
	DD	imagerel $LN13+43
	DD	imagerel $unwind$?QueryDoubleText@XMLElement@tinyxml2@@QEBA?AW4XMLError@2@PEAN@Z
xdata	ENDS
;	COMDAT xdata
xdata	SEGMENT
$unwind$?QueryDoubleText@XMLElement@tinyxml2@@QEBA?AW4XMLError@2@PEAN@Z DD 040a01H
	DD	07340aH
	DD	07006320aH
xdata	ENDS
;	COMDAT xdata
xdata	SEGMENT
$chain$1$?QueryBoolText@XMLElement@tinyxml2@@QEBA?AW4XMLError@2@PEA_N@Z DD 021H
	DD	imagerel $LN9
	DD	imagerel $LN9+43
	DD	imagerel $unwind$?QueryBoolText@XMLElement@tinyxml2@@QEBA?AW4XMLError@2@PEA_N@Z
xdata	ENDS
;	COMDAT xdata
xdata	SEGMENT
$chain$0$?QueryBoolText@XMLElement@tinyxml2@@QEBA?AW4XMLError@2@PEA_N@Z DD 020521H
	DD	066405H
	DD	imagerel $LN9
	DD	imagerel $LN9+43
	DD	imagerel $unwind$?QueryBoolText@XMLElement@tinyxml2@@QEBA?AW4XMLError@2@PEA_N@Z
xdata	ENDS
;	COMDAT xdata
xdata	SEGMENT
$unwind$?QueryBoolText@XMLElement@tinyxml2@@QEBA?AW4XMLError@2@PEA_N@Z DD 040a01H
	DD	07340aH
	DD	07006320aH
xdata	ENDS
;	COMDAT xdata
xdata	SEGMENT
$chain$1$?QueryUnsigned64Text@XMLElement@tinyxml2@@QEBA?AW4XMLError@2@PEA_K@Z DD 021H
	DD	imagerel $LN9
	DD	imagerel $LN9+43
	DD	imagerel $unwind$?QueryUnsigned64Text@XMLElement@tinyxml2@@QEBA?AW4XMLError@2@PEA_K@Z
xdata	ENDS
;	COMDAT xdata
xdata	SEGMENT
$chain$0$?QueryUnsigned64Text@XMLElement@tinyxml2@@QEBA?AW4XMLError@2@PEA_K@Z DD 020521H
	DD	066405H
	DD	imagerel $LN9
	DD	imagerel $LN9+43
	DD	imagerel $unwind$?QueryUnsigned64Text@XMLElement@tinyxml2@@QEBA?AW4XMLError@2@PEA_K@Z
xdata	ENDS
;	COMDAT xdata
xdata	SEGMENT
$unwind$?QueryUnsigned64Text@XMLElement@tinyxml2@@QEBA?AW4XMLError@2@PEA_K@Z DD 040a01H
	DD	07340aH
	DD	07006320aH
xdata	ENDS
;	COMDAT xdata
xdata	SEGMENT
$chain$1$?QueryInt64Text@XMLElement@tinyxml2@@QEBA?AW4XMLError@2@PEA_J@Z DD 021H
	DD	imagerel $LN9
	DD	imagerel $LN9+43
	DD	imagerel $unwind$?QueryInt64Text@XMLElement@tinyxml2@@QEBA?AW4XMLError@2@PEA_J@Z
xdata	ENDS
;	COMDAT xdata
xdata	SEGMENT
$chain$0$?QueryInt64Text@XMLElement@tinyxml2@@QEBA?AW4XMLError@2@PEA_J@Z DD 020521H
	DD	066405H
	DD	imagerel $LN9
	DD	imagerel $LN9+43
	DD	imagerel $unwind$?QueryInt64Text@XMLElement@tinyxml2@@QEBA?AW4XMLError@2@PEA_J@Z
xdata	ENDS
;	COMDAT xdata
xdata	SEGMENT
$unwind$?QueryInt64Text@XMLElement@tinyxml2@@QEBA?AW4XMLError@2@PEA_J@Z DD 040a01H
	DD	07340aH
	DD	07006320aH
xdata	ENDS
;	COMDAT xdata
xdata	SEGMENT
$chain$1$?QueryUnsignedText@XMLElement@tinyxml2@@QEBA?AW4XMLError@2@PEAI@Z DD 021H
	DD	imagerel $LN9
	DD	imagerel $LN9+43
	DD	imagerel $unwind$?QueryUnsignedText@XMLElement@tinyxml2@@QEBA?AW4XMLError@2@PEAI@Z
xdata	ENDS
;	COMDAT xdata
xdata	SEGMENT
$chain$0$?QueryUnsignedText@XMLElement@tinyxml2@@QEBA?AW4XMLError@2@PEAI@Z DD 020521H
	DD	066405H
	DD	imagerel $LN9
	DD	imagerel $LN9+43
	DD	imagerel $unwind$?QueryUnsignedText@XMLElement@tinyxml2@@QEBA?AW4XMLError@2@PEAI@Z
xdata	ENDS
;	COMDAT xdata
xdata	SEGMENT
$unwind$?QueryUnsignedText@XMLElement@tinyxml2@@QEBA?AW4XMLError@2@PEAI@Z DD 040a01H
	DD	07340aH
	DD	07006320aH
xdata	ENDS
;	COMDAT xdata
xdata	SEGMENT
$chain$1$?QueryIntText@XMLElement@tinyxml2@@QEBA?AW4XMLError@2@PEAH@Z DD 021H
	DD	imagerel $LN9
	DD	imagerel $LN9+43
	DD	imagerel $unwind$?QueryIntText@XMLElement@tinyxml2@@QEBA?AW4XMLError@2@PEAH@Z
xdata	ENDS
;	COMDAT xdata
xdata	SEGMENT
$chain$0$?QueryIntText@XMLElement@tinyxml2@@QEBA?AW4XMLError@2@PEAH@Z DD 020521H
	DD	066405H
	DD	imagerel $LN9
	DD	imagerel $LN9+43
	DD	imagerel $unwind$?QueryIntText@XMLElement@tinyxml2@@QEBA?AW4XMLError@2@PEAH@Z
xdata	ENDS
;	COMDAT xdata
xdata	SEGMENT
$unwind$?QueryIntText@XMLElement@tinyxml2@@QEBA?AW4XMLError@2@PEAH@Z DD 040a01H
	DD	07340aH
	DD	07006320aH
xdata	ENDS
;	COMDAT xdata
xdata	SEGMENT
$unwind$?SetText@XMLElement@tinyxml2@@QEAAXM@Z DD 031b19H
	DD	0200109H
	DD	03002H
	DD	imagerel __GSHandlerCheck
	DD	0f0H
xdata	ENDS
;	COMDAT xdata
xdata	SEGMENT
$unwind$?SetText@XMLElement@tinyxml2@@QEAAXN@Z DD 031b19H
	DD	0200109H
	DD	03002H
	DD	imagerel __GSHandlerCheck
	DD	0f0H
xdata	ENDS
;	COMDAT xdata
xdata	SEGMENT
$unwind$?SetText@XMLElement@tinyxml2@@QEAAX_N@Z DD 031b19H
	DD	0200109H
	DD	03002H
	DD	imagerel __GSHandlerCheck
	DD	0f0H
xdata	ENDS
;	COMDAT xdata
xdata	SEGMENT
$unwind$?SetText@XMLElement@tinyxml2@@QEAAX_K@Z DD 031b19H
	DD	0200109H
	DD	03002H
	DD	imagerel __GSHandlerCheck
	DD	0f0H
xdata	ENDS
;	COMDAT xdata
xdata	SEGMENT
$unwind$?SetText@XMLElement@tinyxml2@@QEAAX_J@Z DD 031b19H
	DD	0200109H
	DD	03002H
	DD	imagerel __GSHandlerCheck
	DD	0f0H
xdata	ENDS
;	COMDAT xdata
xdata	SEGMENT
$unwind$?SetText@XMLElement@tinyxml2@@QEAAXI@Z DD 031b19H
	DD	0200109H
	DD	03002H
	DD	imagerel __GSHandlerCheck
	DD	0f0H
xdata	ENDS
;	COMDAT xdata
xdata	SEGMENT
$unwind$?SetText@XMLElement@tinyxml2@@QEAAXH@Z DD 031b19H
	DD	0200109H
	DD	03002H
	DD	imagerel __GSHandlerCheck
	DD	0f0H
xdata	ENDS
;	COMDAT xdata
xdata	SEGMENT
$unwind$?SetText@XMLElement@tinyxml2@@QEAAXPEBD@Z DD 040a01H
	DD	06340aH
	DD	07006320aH
xdata	ENDS
;	COMDAT xdata
xdata	SEGMENT
$unwind$?GetText@XMLElement@tinyxml2@@QEBAPEBDXZ DD 020601H
	DD	030023206H
xdata	ENDS
;	COMDAT xdata
xdata	SEGMENT
$unwind$?FindAttribute@XMLElement@tinyxml2@@QEBAPEBVXMLAttribute@2@PEBD@Z DD 040a01H
	DD	06340aH
	DD	07006320aH
xdata	ENDS
;	COMDAT xdata
xdata	SEGMENT
$chain$1$?DeleteAttribute@XMLElement@tinyxml2@@QEAAXPEBD@Z DD 021H
	DD	imagerel $LN26
	DD	imagerel $LN26+38
	DD	imagerel $unwind$?DeleteAttribute@XMLElement@tinyxml2@@QEAAXPEBD@Z
xdata	ENDS
;	COMDAT xdata
xdata	SEGMENT
$chain$0$?DeleteAttribute@XMLElement@tinyxml2@@QEAAXPEBD@Z DD 020521H
	DD	067405H
	DD	imagerel $LN26
	DD	imagerel $LN26+38
	DD	imagerel $unwind$?DeleteAttribute@XMLElement@tinyxml2@@QEAAXPEBD@Z
xdata	ENDS
;	COMDAT xdata
xdata	SEGMENT
$unwind$?DeleteAttribute@XMLElement@tinyxml2@@QEAAXPEBD@Z DD 081501H
	DD	096415H
	DD	085415H
	DD	073415H
	DD	0e0113215H
xdata	ENDS
;	COMDAT xdata
xdata	SEGMENT
$chain$1$?SetAttribute@XMLElement@tinyxml2@@QEAAXPEBD0@Z DD 021H
	DD	imagerel $LN39
	DD	imagerel $LN39+118
	DD	imagerel $unwind$?SetAttribute@XMLElement@tinyxml2@@QEAAXPEBD0@Z
xdata	ENDS
;	COMDAT xdata
xdata	SEGMENT
$chain$0$?SetAttribute@XMLElement@tinyxml2@@QEAAXPEBD0@Z DD 020521H
	DD	08e405H
	DD	imagerel $LN39
	DD	imagerel $LN39+118
	DD	imagerel $unwind$?SetAttribute@XMLElement@tinyxml2@@QEAAXPEBD0@Z
xdata	ENDS
;	COMDAT xdata
xdata	SEGMENT
$unwind$?SetAttribute@XMLElement@tinyxml2@@QEAAXPEBD0@Z DD 0a1801H
	DD	0b6418H
	DD	0a5418H
	DD	093418H
	DD	0f0143218H
	DD	07010c012H
xdata	ENDS
;	COMDAT xdata
xdata	SEGMENT
$unwind$?QueryFloatAttribute@XMLElement@tinyxml2@@QEBA?AW4XMLError@2@PEBDPEAM@Z DD 060f01H
	DD	07640fH
	DD	06340fH
	DD	0700b320fH
xdata	ENDS
;	COMDAT xdata
xdata	SEGMENT
$unwind$?QueryDoubleAttribute@XMLElement@tinyxml2@@QEBA?AW4XMLError@2@PEBDPEAN@Z DD 060f01H
	DD	07640fH
	DD	06340fH
	DD	0700b320fH
xdata	ENDS
;	COMDAT xdata
xdata	SEGMENT
$unwind$?QueryBoolAttribute@XMLElement@tinyxml2@@QEBA?AW4XMLError@2@PEBDPEA_N@Z DD 060f01H
	DD	07640fH
	DD	06340fH
	DD	0700b320fH
xdata	ENDS
;	COMDAT xdata
xdata	SEGMENT
$unwind$?QueryUnsigned64Attribute@XMLElement@tinyxml2@@QEBA?AW4XMLError@2@PEBDPEA_K@Z DD 060f01H
	DD	07640fH
	DD	06340fH
	DD	0700b320fH
xdata	ENDS
;	COMDAT xdata
xdata	SEGMENT
$unwind$?QueryInt64Attribute@XMLElement@tinyxml2@@QEBA?AW4XMLError@2@PEBDPEA_J@Z DD 060f01H
	DD	07640fH
	DD	06340fH
	DD	0700b320fH
xdata	ENDS
;	COMDAT xdata
xdata	SEGMENT
$unwind$?QueryUnsignedAttribute@XMLElement@tinyxml2@@QEBA?AW4XMLError@2@PEBDPEAI@Z DD 060f01H
	DD	07640fH
	DD	06340fH
	DD	0700b320fH
xdata	ENDS
;	COMDAT xdata
xdata	SEGMENT
$unwind$?QueryIntAttribute@XMLElement@tinyxml2@@QEBA?AW4XMLError@2@PEBDPEAH@Z DD 060f01H
	DD	07640fH
	DD	06340fH
	DD	0700b320fH
xdata	ENDS
;	COMDAT xdata
xdata	SEGMENT
$unwind$?FloatAttribute@XMLElement@tinyxml2@@QEBAMPEBDM@Z DD 040a01H
	DD	06340aH
	DD	07006320aH
xdata	ENDS
;	COMDAT xdata
xdata	SEGMENT
$unwind$?DoubleAttribute@XMLElement@tinyxml2@@QEBANPEBDN@Z DD 040a01H
	DD	07340aH
	DD	07006320aH
xdata	ENDS
;	COMDAT xdata
xdata	SEGMENT
$unwind$?BoolAttribute@XMLElement@tinyxml2@@QEBA_NPEBD_N@Z DD 060f01H
	DD	07640fH
	DD	06340fH
	DD	0700b320fH
xdata	ENDS
;	COMDAT xdata
xdata	SEGMENT
$unwind$?Unsigned64Attribute@XMLElement@tinyxml2@@QEBA_KPEBD_K@Z DD 060f01H
	DD	08640fH
	DD	07340fH
	DD	0700b320fH
xdata	ENDS
;	COMDAT xdata
xdata	SEGMENT
$unwind$?Int64Attribute@XMLElement@tinyxml2@@QEBA_JPEBD_J@Z DD 060f01H
	DD	08640fH
	DD	07340fH
	DD	0700b320fH
xdata	ENDS
;	COMDAT xdata
xdata	SEGMENT
$unwind$?UnsignedAttribute@XMLElement@tinyxml2@@QEBAIPEBDI@Z DD 040a01H
	DD	06340aH
	DD	07006320aH
xdata	ENDS
;	COMDAT xdata
xdata	SEGMENT
$unwind$?IntAttribute@XMLElement@tinyxml2@@QEBAHPEBDH@Z DD 040a01H
	DD	06340aH
	DD	07006320aH
xdata	ENDS
;	COMDAT xdata
xdata	SEGMENT
$unwind$?Attribute@XMLElement@tinyxml2@@QEBAPEBDPEBD0@Z DD 060f01H
	DD	07640fH
	DD	06340fH
	DD	0700b320fH
xdata	ENDS
;	COMDAT xdata
xdata	SEGMENT
$chain$1$?Accept@XMLElement@tinyxml2@@UEBA_NPEAVXMLVisitor@2@@Z DD 021H
	DD	imagerel $LN16
	DD	imagerel $LN16+36
	DD	imagerel $unwind$?Accept@XMLElement@tinyxml2@@UEBA_NPEAVXMLVisitor@2@@Z
xdata	ENDS
;	COMDAT xdata
xdata	SEGMENT
$chain$0$?Accept@XMLElement@tinyxml2@@UEBA_NPEAVXMLVisitor@2@@Z DD 020521H
	DD	063405H
	DD	imagerel $LN16
	DD	imagerel $LN16+36
	DD	imagerel $unwind$?Accept@XMLElement@tinyxml2@@UEBA_NPEAVXMLVisitor@2@@Z
xdata	ENDS
;	COMDAT xdata
xdata	SEGMENT
$unwind$?Accept@XMLElement@tinyxml2@@UEBA_NPEAVXMLVisitor@2@@Z DD 040a01H
	DD	07640aH
	DD	07006320aH
xdata	ENDS
;	COMDAT xdata
xdata	SEGMENT
$unwind$?Name@XMLElement@tinyxml2@@QEBAPEBDXZ DD 020601H
	DD	030023206H
xdata	ENDS
;	COMDAT xdata
xdata	SEGMENT
$unwind$??_GXMLAttribute@tinyxml2@@EEAAPEAXI@Z DD 060f01H
	DD	07640fH
	DD	06340fH
	DD	0700b320fH
xdata	ENDS
;	COMDAT xdata
xdata	SEGMENT
$chain$4$?ParseDeep@XMLAttribute@tinyxml2@@AEAAPEADPEAD_NPEAH@Z DD 021H
	DD	imagerel $LN64
	DD	imagerel $LN64+190
	DD	imagerel $unwind$?ParseDeep@XMLAttribute@tinyxml2@@AEAAPEADPEAD_NPEAH@Z
xdata	ENDS
;	COMDAT xdata
xdata	SEGMENT
$chain$3$?ParseDeep@XMLAttribute@tinyxml2@@AEAAPEADPEAD_NPEAH@Z DD 040021H
	DD	0ce400H
	DD	0b5400H
	DD	imagerel $LN64
	DD	imagerel $LN64+190
	DD	imagerel $unwind$?ParseDeep@XMLAttribute@tinyxml2@@AEAAPEADPEAD_NPEAH@Z
xdata	ENDS
;	COMDAT xdata
xdata	SEGMENT
$chain$1$?ParseDeep@XMLAttribute@tinyxml2@@AEAAPEADPEAD_NPEAH@Z DD 041221H
	DD	0ce412H
	DD	0b5405H
	DD	imagerel $LN64
	DD	imagerel $LN64+190
	DD	imagerel $unwind$?ParseDeep@XMLAttribute@tinyxml2@@AEAAPEADPEAD_NPEAH@Z
xdata	ENDS
;	COMDAT xdata
xdata	SEGMENT
$unwind$?ParseDeep@XMLAttribute@tinyxml2@@AEAAPEADPEAD_NPEAH@Z DD 060c01H
	DD	0f008320cH
	DD	07004c006H
	DD	030026003H
xdata	ENDS
;	COMDAT xdata
xdata	SEGMENT
$unwind$??1XMLAttribute@tinyxml2@@EEAA@XZ DD 040a01H
	DD	06340aH
	DD	07006320aH
xdata	ENDS
;	COMDAT xdata
xdata	SEGMENT
$unwind$?SetAttribute@XMLAttribute@tinyxml2@@QEAAXM@Z DD 072419H
	DD	0256412H
	DD	0243412H
	DD	0200112H
	DD	0700bH
	DD	imagerel __GSHandlerCheck
	DD	0f0H
xdata	ENDS
;	COMDAT xdata
xdata	SEGMENT
$unwind$?SetAttribute@XMLAttribute@tinyxml2@@QEAAXN@Z DD 072419H
	DD	0256412H
	DD	0243412H
	DD	0200112H
	DD	0700bH
	DD	imagerel __GSHandlerCheck
	DD	0f0H
xdata	ENDS
;	COMDAT xdata
xdata	SEGMENT
$unwind$?SetAttribute@XMLAttribute@tinyxml2@@QEAAX_N@Z DD 072419H
	DD	0256412H
	DD	0243412H
	DD	0200112H
	DD	0700bH
	DD	imagerel __GSHandlerCheck
	DD	0f0H
xdata	ENDS
;	COMDAT xdata
xdata	SEGMENT
$unwind$?SetAttribute@XMLAttribute@tinyxml2@@QEAAX_K@Z DD 072419H
	DD	0256412H
	DD	0243412H
	DD	0200112H
	DD	0700bH
	DD	imagerel __GSHandlerCheck
	DD	0f0H
xdata	ENDS
;	COMDAT xdata
xdata	SEGMENT
$unwind$?SetAttribute@XMLAttribute@tinyxml2@@QEAAX_J@Z DD 072419H
	DD	0256412H
	DD	0243412H
	DD	0200112H
	DD	0700bH
	DD	imagerel __GSHandlerCheck
	DD	0f0H
xdata	ENDS
;	COMDAT xdata
xdata	SEGMENT
$unwind$?SetAttribute@XMLAttribute@tinyxml2@@QEAAXI@Z DD 072419H
	DD	0256412H
	DD	0243412H
	DD	0200112H
	DD	0700bH
	DD	imagerel __GSHandlerCheck
	DD	0f0H
xdata	ENDS
;	COMDAT xdata
xdata	SEGMENT
$unwind$?SetAttribute@XMLAttribute@tinyxml2@@QEAAXH@Z DD 072419H
	DD	0256412H
	DD	0243412H
	DD	0200112H
	DD	0700bH
	DD	imagerel __GSHandlerCheck
	DD	0f0H
xdata	ENDS
;	COMDAT xdata
xdata	SEGMENT
$unwind$?QueryFloatValue@XMLAttribute@tinyxml2@@QEBA?AW4XMLError@2@PEAM@Z DD 020601H
	DD	030023206H
xdata	ENDS
;	COMDAT xdata
xdata	SEGMENT
$unwind$?QueryDoubleValue@XMLAttribute@tinyxml2@@QEBA?AW4XMLError@2@PEAN@Z DD 020601H
	DD	030023206H
xdata	ENDS
;	COMDAT xdata
xdata	SEGMENT
$unwind$?QueryBoolValue@XMLAttribute@tinyxml2@@QEBA?AW4XMLError@2@PEA_N@Z DD 020601H
	DD	030023206H
xdata	ENDS
;	COMDAT xdata
xdata	SEGMENT
$unwind$?QueryUnsigned64Value@XMLAttribute@tinyxml2@@QEBA?AW4XMLError@2@PEA_K@Z DD 020601H
	DD	030023206H
xdata	ENDS
;	COMDAT xdata
xdata	SEGMENT
$unwind$?QueryInt64Value@XMLAttribute@tinyxml2@@QEBA?AW4XMLError@2@PEA_J@Z DD 020601H
	DD	030023206H
xdata	ENDS
;	COMDAT xdata
xdata	SEGMENT
$unwind$?QueryUnsignedValue@XMLAttribute@tinyxml2@@QEBA?AW4XMLError@2@PEAI@Z DD 020601H
	DD	030023206H
xdata	ENDS
;	COMDAT xdata
xdata	SEGMENT
$unwind$?QueryIntValue@XMLAttribute@tinyxml2@@QEBA?AW4XMLError@2@PEAH@Z DD 020601H
	DD	030023206H
xdata	ENDS
;	COMDAT xdata
xdata	SEGMENT
$unwind$??_GXMLUnknown@tinyxml2@@MEAAPEAXI@Z DD 040a01H
	DD	06340aH
	DD	07006320aH
xdata	ENDS
;	COMDAT xdata
xdata	SEGMENT
$unwind$?ParseDeep@XMLUnknown@tinyxml2@@MEAAPEADPEADPEAVStrPair@2@PEAH@Z DD 081501H
	DD	087415H
	DD	076415H
	DD	063415H
	DD	0e0113215H
xdata	ENDS
;	COMDAT xdata
xdata	SEGMENT
$unwind$?ShallowEqual@XMLUnknown@tinyxml2@@UEBA_NPEBVXMLNode@2@@Z DD 060f01H
	DD	07640fH
	DD	06340fH
	DD	0700b320fH
xdata	ENDS
;	COMDAT xdata
xdata	SEGMENT
$unwind$?ShallowClone@XMLUnknown@tinyxml2@@UEBAPEAVXMLNode@2@PEAVXMLDocument@2@@Z DD 040a01H
	DD	06340aH
	DD	07006320aH
xdata	ENDS
;	COMDAT xdata
xdata	SEGMENT
$unwind$??_GXMLDeclaration@tinyxml2@@MEAAPEAXI@Z DD 040a01H
	DD	06340aH
	DD	07006320aH
xdata	ENDS
;	COMDAT xdata
xdata	SEGMENT
$unwind$?ParseDeep@XMLDeclaration@tinyxml2@@MEAAPEADPEADPEAVStrPair@2@PEAH@Z DD 081501H
	DD	087415H
	DD	076415H
	DD	063415H
	DD	0e0113215H
xdata	ENDS
;	COMDAT xdata
xdata	SEGMENT
$unwind$?ShallowEqual@XMLDeclaration@tinyxml2@@UEBA_NPEBVXMLNode@2@@Z DD 060f01H
	DD	07640fH
	DD	06340fH
	DD	0700b320fH
xdata	ENDS
;	COMDAT xdata
xdata	SEGMENT
$unwind$?ShallowClone@XMLDeclaration@tinyxml2@@UEBAPEAVXMLNode@2@PEAVXMLDocument@2@@Z DD 040a01H
	DD	06340aH
	DD	07006320aH
xdata	ENDS
;	COMDAT xdata
xdata	SEGMENT
$unwind$??_GXMLComment@tinyxml2@@MEAAPEAXI@Z DD 040a01H
	DD	06340aH
	DD	07006320aH
xdata	ENDS
;	COMDAT xdata
xdata	SEGMENT
$unwind$?ParseDeep@XMLComment@tinyxml2@@MEAAPEADPEADPEAVStrPair@2@PEAH@Z DD 081501H
	DD	087415H
	DD	076415H
	DD	063415H
	DD	0e0113215H
xdata	ENDS
;	COMDAT xdata
xdata	SEGMENT
$unwind$?ShallowEqual@XMLComment@tinyxml2@@UEBA_NPEBVXMLNode@2@@Z DD 060f01H
	DD	07640fH
	DD	06340fH
	DD	0700b320fH
xdata	ENDS
;	COMDAT xdata
xdata	SEGMENT
$unwind$?ShallowClone@XMLComment@tinyxml2@@UEBAPEAVXMLNode@2@PEAVXMLDocument@2@@Z DD 040a01H
	DD	06340aH
	DD	07006320aH
xdata	ENDS
;	COMDAT xdata
xdata	SEGMENT
$unwind$??_GXMLText@tinyxml2@@MEAAPEAXI@Z DD 040a01H
	DD	06340aH
	DD	07006320aH
xdata	ENDS
;	COMDAT xdata
xdata	SEGMENT
$chain$3$?ParseDeep@XMLText@tinyxml2@@MEAAPEADPEADPEAVStrPair@2@PEAH@Z DD 040021H
	DD	09f400H
	DD	085400H
	DD	imagerel $LN50
	DD	imagerel $LN50+182
	DD	imagerel $unwind$?ParseDeep@XMLText@tinyxml2@@MEAAPEADPEADPEAVStrPair@2@PEAH@Z
xdata	ENDS
;	COMDAT xdata
xdata	SEGMENT
$chain$1$?ParseDeep@XMLText@tinyxml2@@MEAAPEADPEADPEAVStrPair@2@PEAH@Z DD 040c21H
	DD	09f40cH
	DD	085405H
	DD	imagerel $LN50
	DD	imagerel $LN50+182
	DD	imagerel $unwind$?ParseDeep@XMLText@tinyxml2@@MEAAPEADPEADPEAVStrPair@2@PEAH@Z
xdata	ENDS
;	COMDAT xdata
xdata	SEGMENT
$unwind$?ParseDeep@XMLText@tinyxml2@@MEAAPEADPEADPEAVStrPair@2@PEAH@Z DD 060d01H
	DD	0a340dH
	DD	0e009320dH
	DD	060067007H
xdata	ENDS
;	COMDAT xdata
xdata	SEGMENT
$unwind$?ShallowEqual@XMLText@tinyxml2@@UEBA_NPEBVXMLNode@2@@Z DD 060f01H
	DD	07640fH
	DD	06340fH
	DD	0700b320fH
xdata	ENDS
;	COMDAT xdata
xdata	SEGMENT
$unwind$?ShallowClone@XMLText@tinyxml2@@UEBAPEAVXMLNode@2@PEAVXMLDocument@2@@Z DD 040a01H
	DD	06340aH
	DD	07006320aH
xdata	ENDS
;	COMDAT xdata
xdata	SEGMENT
$unwind$??_GXMLNode@tinyxml2@@MEAAPEAXI@Z DD 040a01H
	DD	06340aH
	DD	07006320aH
xdata	ENDS
;	COMDAT xdata
xdata	SEGMENT
$unwind$?ToElementWithName@XMLNode@tinyxml2@@AEBAPEBVXMLElement@2@PEBD@Z DD 040a01H
	DD	06340aH
	DD	07006320aH
xdata	ENDS
;	COMDAT xdata
xdata	SEGMENT
$chain$1$?DeleteNode@XMLNode@tinyxml2@@CAXPEAV12@@Z DD 021H
	DD	imagerel $LN22
	DD	imagerel $LN22+20
	DD	imagerel $unwind$?DeleteNode@XMLNode@tinyxml2@@CAXPEAV12@@Z
xdata	ENDS
;	COMDAT xdata
xdata	SEGMENT
$chain$0$?DeleteNode@XMLNode@tinyxml2@@CAXPEAV12@@Z DD 020521H
	DD	063405H
	DD	imagerel $LN22
	DD	imagerel $LN22+20
	DD	imagerel $unwind$?DeleteNode@XMLNode@tinyxml2@@CAXPEAV12@@Z
xdata	ENDS
;	COMDAT xdata
xdata	SEGMENT
$unwind$?DeleteNode@XMLNode@tinyxml2@@CAXPEAV12@@Z DD 020e01H
	DD	0700a320eH
xdata	ENDS
;	COMDAT xdata
xdata	SEGMENT
$chain$3$?ParseDeep@XMLNode@tinyxml2@@MEAAPEADPEADPEAVStrPair@2@PEAH@Z DD 021H
	DD	imagerel $LN201
	DD	imagerel $LN201+100
	DD	imagerel $unwind$?ParseDeep@XMLNode@tinyxml2@@MEAAPEADPEADPEAVStrPair@2@PEAH@Z
xdata	ENDS
;	COMDAT xdata
xdata	SEGMENT
$chain$2$?ParseDeep@XMLNode@tinyxml2@@MEAAPEADPEADPEAVStrPair@2@PEAH@Z DD 040d21H
	DD	0ae40dH
	DD	0133408H
	DD	imagerel $LN201
	DD	imagerel $LN201+100
	DD	imagerel $unwind$?ParseDeep@XMLNode@tinyxml2@@MEAAPEADPEADPEAVStrPair@2@PEAH@Z
xdata	ENDS
;	COMDAT xdata
xdata	SEGMENT
$unwind$?ParseDeep@XMLNode@tinyxml2@@MEAAPEADPEADPEAVStrPair@2@PEAH@Z DD 085601H
	DD	0b5456H
	DD	0f00db211H
	DD	0c009d00bH
	DD	060067007H
xdata	ENDS
;	COMDAT xdata
xdata	SEGMENT
$unwind$??1XMLNode@tinyxml2@@MEAA@XZ DD 040a01H
	DD	06340aH
	DD	07006320aH
xdata	ENDS
;	COMDAT xdata
xdata	SEGMENT
$chain$2$?DeepClone@XMLNode@tinyxml2@@QEBAPEAV12@PEAVXMLDocument@2@@Z DD 021H
	DD	imagerel $LN17
	DD	imagerel $LN17+60
	DD	imagerel $unwind$?DeepClone@XMLNode@tinyxml2@@QEBAPEAV12@PEAVXMLDocument@2@@Z
xdata	ENDS
;	COMDAT xdata
xdata	SEGMENT
$chain$1$?DeepClone@XMLNode@tinyxml2@@QEBAPEAV12@PEAVXMLDocument@2@@Z DD 040a21H
	DD	07e40aH
	DD	063405H
	DD	imagerel $LN17
	DD	imagerel $LN17+60
	DD	imagerel $unwind$?DeepClone@XMLNode@tinyxml2@@QEBAPEAV12@PEAVXMLDocument@2@@Z
xdata	ENDS
;	COMDAT xdata
xdata	SEGMENT
$unwind$?DeepClone@XMLNode@tinyxml2@@QEBAPEAV12@PEAVXMLDocument@2@@Z DD 060f01H
	DD	09640fH
	DD	08540fH
	DD	0700b320fH
xdata	ENDS
;	COMDAT xdata
xdata	SEGMENT
$unwind$?DeleteChild@XMLNode@tinyxml2@@QEAAXPEAV12@@Z DD 040a01H
	DD	06340aH
	DD	07006320aH
xdata	ENDS
;	COMDAT xdata
xdata	SEGMENT
$chain$1$?DeleteChildren@XMLNode@tinyxml2@@QEAAXXZ DD 021H
	DD	imagerel $LN39
	DD	imagerel $LN39+33
	DD	imagerel $unwind$?DeleteChildren@XMLNode@tinyxml2@@QEAAXXZ
xdata	ENDS
;	COMDAT xdata
xdata	SEGMENT
$chain$0$?DeleteChildren@XMLNode@tinyxml2@@QEAAXXZ DD 020521H
	DD	067405H
	DD	imagerel $LN39
	DD	imagerel $LN39+33
	DD	imagerel $unwind$?DeleteChildren@XMLNode@tinyxml2@@QEAAXXZ
xdata	ENDS
;	COMDAT xdata
xdata	SEGMENT
$unwind$?DeleteChildren@XMLNode@tinyxml2@@QEAAXXZ DD 060f01H
	DD	08540fH
	DD	07340fH
	DD	0600b320fH
xdata	ENDS
;	COMDAT xdata
xdata	SEGMENT
$unwind$?InsertAfterChild@XMLNode@tinyxml2@@QEAAPEAV12@PEAV12@0@Z DD 060f01H
	DD	07640fH
	DD	06340fH
	DD	0700b320fH
xdata	ENDS
;	COMDAT xdata
xdata	SEGMENT
$unwind$?InsertFirstChild@XMLNode@tinyxml2@@QEAAPEAV12@PEAV12@@Z DD 040a01H
	DD	06340aH
	DD	07006320aH
xdata	ENDS
;	COMDAT xdata
xdata	SEGMENT
$unwind$?InsertEndChild@XMLNode@tinyxml2@@QEAAPEAV12@PEAV12@@Z DD 040a01H
	DD	06340aH
	DD	07006320aH
xdata	ENDS
;	COMDAT xdata
xdata	SEGMENT
$unwind$?NextSiblingElement@XMLNode@tinyxml2@@QEBAPEBVXMLElement@2@PEBD@Z DD 060f01H
	DD	07640fH
	DD	06340fH
	DD	0700b320fH
xdata	ENDS
;	COMDAT xdata
xdata	SEGMENT
$unwind$?PreviousSiblingElement@XMLNode@tinyxml2@@QEBAPEBVXMLElement@2@PEBD@Z DD 060f01H
	DD	07640fH
	DD	06340fH
	DD	0700b320fH
xdata	ENDS
;	COMDAT xdata
xdata	SEGMENT
$unwind$?LastChildElement@XMLNode@tinyxml2@@QEBAPEBVXMLElement@2@PEBD@Z DD 060f01H
	DD	07640fH
	DD	06340fH
	DD	0700b320fH
xdata	ENDS
;	COMDAT xdata
xdata	SEGMENT
$unwind$?FirstChildElement@XMLNode@tinyxml2@@QEBAPEBVXMLElement@2@PEBD@Z DD 060f01H
	DD	07640fH
	DD	06340fH
	DD	0700b320fH
xdata	ENDS
;	COMDAT xdata
xdata	SEGMENT
$chain$2$?SetValue@XMLNode@tinyxml2@@QEAAXPEBD_N@Z DD 021H
	DD	imagerel $LN17
	DD	imagerel $LN17+60
	DD	imagerel $unwind$?SetValue@XMLNode@tinyxml2@@QEAAXPEBD_N@Z
xdata	ENDS
;	COMDAT xdata
xdata	SEGMENT
$chain$1$?SetValue@XMLNode@tinyxml2@@QEAAXPEBD_N@Z DD 040a21H
	DD	07740aH
	DD	063405H
	DD	imagerel $LN17
	DD	imagerel $LN17+60
	DD	imagerel $unwind$?SetValue@XMLNode@tinyxml2@@QEAAXPEBD_N@Z
xdata	ENDS
;	COMDAT xdata
xdata	SEGMENT
$unwind$?SetValue@XMLNode@tinyxml2@@QEAAXPEBD_N@Z DD 061001H
	DD	096410H
	DD	085410H
	DD	0e00c3210H
xdata	ENDS
;	COMDAT xdata
xdata	SEGMENT
$unwind$?Value@XMLNode@tinyxml2@@QEBAPEBDXZ DD 020601H
	DD	030023206H
xdata	ENDS
;	COMDAT xdata
xdata	SEGMENT
$unwind$?ToUnsigned64@XMLUtil@tinyxml2@@SA_NPEBDPEA_K@Z DD 060f01H
	DD	08640fH
	DD	07340fH
	DD	0700b320fH
xdata	ENDS
;	COMDAT xdata
xdata	SEGMENT
$unwind$?ToInt64@XMLUtil@tinyxml2@@SA_NPEBDPEA_J@Z DD 060f01H
	DD	08640fH
	DD	07340fH
	DD	0700b320fH
xdata	ENDS
;	COMDAT xdata
xdata	SEGMENT
$unwind$?ToDouble@XMLUtil@tinyxml2@@SA_NPEBDPEAN@Z DD 010401H
	DD	04204H
xdata	ENDS
;	COMDAT xdata
xdata	SEGMENT
$unwind$?ToFloat@XMLUtil@tinyxml2@@SA_NPEBDPEAM@Z DD 010401H
	DD	04204H
xdata	ENDS
;	COMDAT xdata
xdata	SEGMENT
$chain$3$?ToBool@XMLUtil@tinyxml2@@SA_NPEBDPEA_N@Z DD 040021H
	DD	09f400H
	DD	086400H
	DD	imagerel $LN35
	DD	imagerel $LN35+63
	DD	imagerel $unwind$?ToBool@XMLUtil@tinyxml2@@SA_NPEBDPEA_N@Z
xdata	ENDS
;	COMDAT xdata
xdata	SEGMENT
$chain$1$?ToBool@XMLUtil@tinyxml2@@SA_NPEBDPEA_N@Z DD 040a21H
	DD	09f40aH
	DD	086405H
	DD	imagerel $LN35
	DD	imagerel $LN35+63
	DD	imagerel $unwind$?ToBool@XMLUtil@tinyxml2@@SA_NPEBDPEA_N@Z
xdata	ENDS
;	COMDAT xdata
xdata	SEGMENT
$unwind$?ToBool@XMLUtil@tinyxml2@@SA_NPEBDPEA_N@Z DD 040901H
	DD	0e0053209H
	DD	030027003H
xdata	ENDS
;	COMDAT xdata
xdata	SEGMENT
$unwind$?ToUnsigned@XMLUtil@tinyxml2@@SA_NPEBDPEAI@Z DD 060f01H
	DD	07640fH
	DD	06340fH
	DD	0700b320fH
xdata	ENDS
;	COMDAT xdata
xdata	SEGMENT
$unwind$?ToInt@XMLUtil@tinyxml2@@SA_NPEBDPEAH@Z DD 060f01H
	DD	08640fH
	DD	07340fH
	DD	0700b320fH
xdata	ENDS
;	COMDAT xdata
xdata	SEGMENT
$unwind$?ConvertUTF32ToUTF8@XMLUtil@tinyxml2@@SAXKPEADPEAH@Z DD 011319H
	DD	06204H
	DD	imagerel __GSHandlerCheck
	DD	020H
xdata	ENDS
;	COMDAT xdata
xdata	SEGMENT
$chain$4$?GetCharacterRef@XMLUtil@tinyxml2@@SAPEBDPEBDPEADPEAH@Z DD 021H
	DD	imagerel $LN50
	DD	imagerel $LN50+67
	DD	imagerel $unwind$?GetCharacterRef@XMLUtil@tinyxml2@@SAPEBDPEBDPEADPEAH@Z
xdata	ENDS
;	COMDAT xdata
xdata	SEGMENT
$chain$3$?GetCharacterRef@XMLUtil@tinyxml2@@SAPEBDPEBDPEADPEAH@Z DD 040021H
	DD	0a7400H
	DD	0133400H
	DD	imagerel $LN50
	DD	imagerel $LN50+67
	DD	imagerel $unwind$?GetCharacterRef@XMLUtil@tinyxml2@@SAPEBDPEBDPEADPEAH@Z
xdata	ENDS
;	COMDAT xdata
xdata	SEGMENT
$chain$2$?GetCharacterRef@XMLUtil@tinyxml2@@SAPEBDPEBDPEADPEAH@Z DD 021H
	DD	imagerel $LN50
	DD	imagerel $LN50+67
	DD	imagerel $unwind$?GetCharacterRef@XMLUtil@tinyxml2@@SAPEBDPEBDPEADPEAH@Z
xdata	ENDS
;	COMDAT xdata
xdata	SEGMENT
$chain$1$?GetCharacterRef@XMLUtil@tinyxml2@@SAPEBDPEBDPEADPEAH@Z DD 041021H
	DD	0a7410H
	DD	0133408H
	DD	imagerel $LN50
	DD	imagerel $LN50+67
	DD	imagerel $unwind$?GetCharacterRef@XMLUtil@tinyxml2@@SAPEBDPEBDPEADPEAH@Z
xdata	ENDS
;	COMDAT xdata
xdata	SEGMENT
$unwind$?GetCharacterRef@XMLUtil@tinyxml2@@SAPEBDPEBDPEADPEAH@Z DD 051a19H
	DD	0f007a20bH
	DD	06003e005H
	DD	05002H
	DD	imagerel __GSHandlerCheck
	DD	040H
xdata	ENDS
;	COMDAT xdata
xdata	SEGMENT
$unwind$?StringEqual@XMLUtil@tinyxml2@@SA_NPEBD0H@Z DD 010401H
	DD	04204H
xdata	ENDS
;	COMDAT xdata
xdata	SEGMENT
$unwind$?IsPrefixHex@XMLUtil@tinyxml2@@SA_NPEBD@Z DD 020601H
	DD	030023206H
xdata	ENDS
;	COMDAT xdata
xdata	SEGMENT
$unwind$?IsNameChar@XMLUtil@tinyxml2@@SA_NE@Z DD 040a01H
	DD	06340aH
	DD	07006320aH
xdata	ENDS
;	COMDAT xdata
xdata	SEGMENT
$unwind$?IsNameStartChar@XMLUtil@tinyxml2@@SA_NE@Z DD 020601H
	DD	030023206H
xdata	ENDS
;	COMDAT xdata
xdata	SEGMENT
$unwind$?IsWhiteSpace@XMLUtil@tinyxml2@@SA_ND@Z DD 010401H
	DD	04204H
xdata	ENDS
;	COMDAT xdata
xdata	SEGMENT
$unwind$?SkipWhiteSpace@XMLUtil@tinyxml2@@SAPEADQEADPEAH@Z DD 040a01H
	DD	06340aH
	DD	07006320aH
xdata	ENDS
;	COMDAT xdata
xdata	SEGMENT
$unwind$?SkipWhiteSpace@XMLUtil@tinyxml2@@SAPEBDPEBDPEAH@Z DD 040a01H
	DD	06340aH
	DD	07006320aH
xdata	ENDS
;	COMDAT xdata
xdata	SEGMENT
$unwind$??_GXMLVisitor@tinyxml2@@UEAAPEAXI@Z DD 020601H
	DD	030023206H
xdata	ENDS
;	COMDAT xdata
xdata	SEGMENT
$unwind$??_GMemPool@tinyxml2@@UEAAPEAXI@Z DD 020601H
	DD	030023206H
xdata	ENDS
;	COMDAT xdata
xdata	SEGMENT
$unwind$?CollapseWhitespace@StrPair@tinyxml2@@AEAAXXZ DD 040a01H
	DD	06340aH
	DD	07006320aH
xdata	ENDS
;	COMDAT xdata
xdata	SEGMENT
$unwind$?Reset@StrPair@tinyxml2@@QEAAXXZ DD 020601H
	DD	030023206H
xdata	ENDS
;	COMDAT xdata
xdata	SEGMENT
$unwind$?TransferTo@StrPair@tinyxml2@@QEAAXPEAV12@@Z DD 040f01H
	DD	06340fH
	DD	0700b320fH
xdata	ENDS
;	COMDAT xdata
xdata	SEGMENT
$chain$3$?ParseName@StrPair@tinyxml2@@QEAAPEADPEAD@Z DD 021H
	DD	imagerel $LN36
	DD	imagerel $LN36+77
	DD	imagerel $unwind$?ParseName@StrPair@tinyxml2@@QEAAPEADPEAD@Z
xdata	ENDS
;	COMDAT xdata
xdata	SEGMENT
$chain$2$?ParseName@StrPair@tinyxml2@@QEAAPEADPEAD@Z DD 021H
	DD	imagerel $LN36+77
	DD	imagerel $LN36+92
	DD	imagerel $chain$0$?ParseName@StrPair@tinyxml2@@QEAAPEADPEAD@Z
xdata	ENDS
;	COMDAT xdata
xdata	SEGMENT
$chain$1$?ParseName@StrPair@tinyxml2@@QEAAPEADPEAD@Z DD 020521H
	DD	076405H
	DD	imagerel $LN36+77
	DD	imagerel $LN36+92
	DD	imagerel $chain$0$?ParseName@StrPair@tinyxml2@@QEAAPEADPEAD@Z
xdata	ENDS
;	COMDAT xdata
xdata	SEGMENT
$chain$0$?ParseName@StrPair@tinyxml2@@QEAAPEADPEAD@Z DD 020521H
	DD	065405H
	DD	imagerel $LN36
	DD	imagerel $LN36+77
	DD	imagerel $unwind$?ParseName@StrPair@tinyxml2@@QEAAPEADPEAD@Z
xdata	ENDS
;	COMDAT xdata
xdata	SEGMENT
$unwind$?ParseName@StrPair@tinyxml2@@QEAAPEADPEAD@Z DD 061001H
	DD	097410H
	DD	083410H
	DD	0e00c3210H
xdata	ENDS
;	COMDAT xdata
xdata	SEGMENT
$unwind$?ParseText@StrPair@tinyxml2@@QEAAPEADPEADPEBDHPEAH@Z DD 0c4301H
	DD	0a6443H
	DD	0c5417H
	DD	0b3417H
	DD	0f0133217H
	DD	0d00fe011H
	DD	0700bc00dH
xdata	ENDS
;	COMDAT xdata
xdata	SEGMENT
$unwind$?SetStr@StrPair@tinyxml2@@QEAAXPEBDH@Z DD 0a1a01H
	DD	09741aH
	DD	08641aH
	DD	07541aH
	DD	06341aH
	DD	0e016321aH
xdata	ENDS
;	COMDAT xdata
xdata	SEGMENT
$unwind$?SetInternedStr@StrPair@tinyxml2@@QEAAXPEBD@Z DD 040a01H
	DD	06340aH
	DD	07006320aH
xdata	ENDS
;	COMDAT xdata
xdata	SEGMENT
$chain$9$?GetStr@StrPair@tinyxml2@@QEAAPEBDXZ DD 021H
	DD	imagerel $LN101
